Archive member included to satisfy reference by file (symbol)

/usr/lib/gcc/arm-none-eabi/8.2.0/../../../../arm-none-eabi/lib/thumb/v6-m/nofp/libstdc++_nano.a(new_op.o)
                              build/obj/./src/timer.opp (operator new(unsigned int))
/usr/lib/gcc/arm-none-eabi/8.2.0/../../../../arm-none-eabi/lib/thumb/v6-m/nofp/libstdc++_nano.a(atexit_arm.o)
                              build/obj/./src/timer.opp (__aeabi_atexit)
/usr/lib/gcc/arm-none-eabi/8.2.0/../../../../arm-none-eabi/lib/thumb/v6-m/nofp/libstdc++_nano.a(del_opv.o)
                              build/obj/./src/adc.opp (operator delete[](void*))
/usr/lib/gcc/arm-none-eabi/8.2.0/../../../../arm-none-eabi/lib/thumb/v6-m/nofp/libstdc++_nano.a(del_op.o)
                              /usr/lib/gcc/arm-none-eabi/8.2.0/../../../../arm-none-eabi/lib/thumb/v6-m/nofp/libstdc++_nano.a(del_opv.o) (operator delete(void*))
/usr/lib/gcc/arm-none-eabi/8.2.0/../../../../arm-none-eabi/lib/thumb/v6-m/nofp/libstdc++_nano.a(new_handler.o)
                              /usr/lib/gcc/arm-none-eabi/8.2.0/../../../../arm-none-eabi/lib/thumb/v6-m/nofp/libstdc++_nano.a(new_op.o) (std::get_new_handler())
/usr/lib/gcc/arm-none-eabi/8.2.0/../../../../arm-none-eabi/lib/thumb/v6-m/nofp/libstdc++_nano.a(new_opv.o)
                              build/obj/./src/adc.opp (operator new[](unsigned int))
/usr/lib/gcc/arm-none-eabi/8.2.0/../../../../arm-none-eabi/lib/thumb/v6-m/nofp/libc_nano.a(lib_a-abort.o)
                              /usr/lib/gcc/arm-none-eabi/8.2.0/../../../../arm-none-eabi/lib/thumb/v6-m/nofp/libstdc++_nano.a(new_op.o) (abort)
/usr/lib/gcc/arm-none-eabi/8.2.0/../../../../arm-none-eabi/lib/thumb/v6-m/nofp/libc_nano.a(lib_a-atexit.o)
                              /usr/lib/gcc/arm-none-eabi/8.2.0/../../../../arm-none-eabi/lib/thumb/v6-m/nofp/crt0.o (atexit)
/usr/lib/gcc/arm-none-eabi/8.2.0/../../../../arm-none-eabi/lib/thumb/v6-m/nofp/libc_nano.a(lib_a-cxa_atexit.o)
                              /usr/lib/gcc/arm-none-eabi/8.2.0/../../../../arm-none-eabi/lib/thumb/v6-m/nofp/libstdc++_nano.a(atexit_arm.o) (__cxa_atexit)
/usr/lib/gcc/arm-none-eabi/8.2.0/../../../../arm-none-eabi/lib/thumb/v6-m/nofp/libc_nano.a(lib_a-exit.o)
                              /usr/lib/gcc/arm-none-eabi/8.2.0/../../../../arm-none-eabi/lib/thumb/v6-m/nofp/crt0.o (exit)
/usr/lib/gcc/arm-none-eabi/8.2.0/../../../../arm-none-eabi/lib/thumb/v6-m/nofp/libc_nano.a(lib_a-fini.o)
                              /usr/lib/gcc/arm-none-eabi/8.2.0/../../../../arm-none-eabi/lib/thumb/v6-m/nofp/crt0.o (__libc_fini_array)
/usr/lib/gcc/arm-none-eabi/8.2.0/../../../../arm-none-eabi/lib/thumb/v6-m/nofp/libc_nano.a(lib_a-impure.o)
                              /usr/lib/gcc/arm-none-eabi/8.2.0/../../../../arm-none-eabi/lib/thumb/v6-m/nofp/libc_nano.a(lib_a-exit.o) (_global_impure_ptr)
/usr/lib/gcc/arm-none-eabi/8.2.0/../../../../arm-none-eabi/lib/thumb/v6-m/nofp/libc_nano.a(lib_a-init.o)
                              /usr/lib/gcc/arm-none-eabi/8.2.0/../../../../arm-none-eabi/lib/thumb/v6-m/nofp/crt0.o (__libc_init_array)
/usr/lib/gcc/arm-none-eabi/8.2.0/../../../../arm-none-eabi/lib/thumb/v6-m/nofp/libc_nano.a(lib_a-malloc.o)
                              /usr/lib/gcc/arm-none-eabi/8.2.0/../../../../arm-none-eabi/lib/thumb/v6-m/nofp/libstdc++_nano.a(new_op.o) (malloc)
/usr/lib/gcc/arm-none-eabi/8.2.0/../../../../arm-none-eabi/lib/thumb/v6-m/nofp/libc_nano.a(lib_a-memset.o)
                              /usr/lib/gcc/arm-none-eabi/8.2.0/../../../../arm-none-eabi/lib/thumb/v6-m/nofp/crt0.o (memset)
/usr/lib/gcc/arm-none-eabi/8.2.0/../../../../arm-none-eabi/lib/thumb/v6-m/nofp/libc_nano.a(lib_a-nano-freer.o)
                              /usr/lib/gcc/arm-none-eabi/8.2.0/../../../../arm-none-eabi/lib/thumb/v6-m/nofp/libc_nano.a(lib_a-malloc.o) (_free_r)
/usr/lib/gcc/arm-none-eabi/8.2.0/../../../../arm-none-eabi/lib/thumb/v6-m/nofp/libc_nano.a(lib_a-nano-mallocr.o)
                              /usr/lib/gcc/arm-none-eabi/8.2.0/../../../../arm-none-eabi/lib/thumb/v6-m/nofp/libc_nano.a(lib_a-malloc.o) (_malloc_r)
/usr/lib/gcc/arm-none-eabi/8.2.0/../../../../arm-none-eabi/lib/thumb/v6-m/nofp/libc_nano.a(lib_a-on_exit_args.o)
                              /usr/lib/gcc/arm-none-eabi/8.2.0/../../../../arm-none-eabi/lib/thumb/v6-m/nofp/libc_nano.a(lib_a-cxa_atexit.o) (__on_exit_args)
/usr/lib/gcc/arm-none-eabi/8.2.0/../../../../arm-none-eabi/lib/thumb/v6-m/nofp/libc_nano.a(lib_a-printf.o)
                              build/obj/./src/printing.opp (printf)
/usr/lib/gcc/arm-none-eabi/8.2.0/../../../../arm-none-eabi/lib/thumb/v6-m/nofp/libc_nano.a(lib_a-puts.o)
                              build/obj/./src/printing.opp (puts)
/usr/lib/gcc/arm-none-eabi/8.2.0/../../../../arm-none-eabi/lib/thumb/v6-m/nofp/libc_nano.a(lib_a-sbrkr.o)
                              /usr/lib/gcc/arm-none-eabi/8.2.0/../../../../arm-none-eabi/lib/thumb/v6-m/nofp/libc_nano.a(lib_a-nano-mallocr.o) (_sbrk_r)
/usr/lib/gcc/arm-none-eabi/8.2.0/../../../../arm-none-eabi/lib/thumb/v6-m/nofp/libc_nano.a(lib_a-signal.o)
                              /usr/lib/gcc/arm-none-eabi/8.2.0/../../../../arm-none-eabi/lib/thumb/v6-m/nofp/libc_nano.a(lib_a-abort.o) (raise)
/usr/lib/gcc/arm-none-eabi/8.2.0/../../../../arm-none-eabi/lib/thumb/v6-m/nofp/libc_nano.a(lib_a-signalr.o)
                              /usr/lib/gcc/arm-none-eabi/8.2.0/../../../../arm-none-eabi/lib/thumb/v6-m/nofp/libc_nano.a(lib_a-signal.o) (_kill_r)
/usr/lib/gcc/arm-none-eabi/8.2.0/../../../../arm-none-eabi/lib/thumb/v6-m/nofp/libc_nano.a(lib_a-wbuf.o)
                              /usr/lib/gcc/arm-none-eabi/8.2.0/../../../../arm-none-eabi/lib/thumb/v6-m/nofp/libc_nano.a(lib_a-puts.o) (__swbuf_r)
/usr/lib/gcc/arm-none-eabi/8.2.0/../../../../arm-none-eabi/lib/thumb/v6-m/nofp/libc_nano.a(lib_a-wsetup.o)
                              /usr/lib/gcc/arm-none-eabi/8.2.0/../../../../arm-none-eabi/lib/thumb/v6-m/nofp/libc_nano.a(lib_a-puts.o) (__swsetup_r)
/usr/lib/gcc/arm-none-eabi/8.2.0/../../../../arm-none-eabi/lib/thumb/v6-m/nofp/libc_nano.a(lib_a-__atexit.o)
                              /usr/lib/gcc/arm-none-eabi/8.2.0/../../../../arm-none-eabi/lib/thumb/v6-m/nofp/libc_nano.a(lib_a-atexit.o) (__register_exitproc)
/usr/lib/gcc/arm-none-eabi/8.2.0/../../../../arm-none-eabi/lib/thumb/v6-m/nofp/libc_nano.a(lib_a-__call_atexit.o)
                              /usr/lib/gcc/arm-none-eabi/8.2.0/../../../../arm-none-eabi/lib/thumb/v6-m/nofp/libc_nano.a(lib_a-__atexit.o) (__call_exitprocs)
/usr/lib/gcc/arm-none-eabi/8.2.0/../../../../arm-none-eabi/lib/thumb/v6-m/nofp/libc_nano.a(lib_a-fflush.o)
                              /usr/lib/gcc/arm-none-eabi/8.2.0/../../../../arm-none-eabi/lib/thumb/v6-m/nofp/libc_nano.a(lib_a-wbuf.o) (_fflush_r)
/usr/lib/gcc/arm-none-eabi/8.2.0/../../../../arm-none-eabi/lib/thumb/v6-m/nofp/libc_nano.a(lib_a-findfp.o)
                              /usr/lib/gcc/arm-none-eabi/8.2.0/../../../../arm-none-eabi/lib/thumb/v6-m/nofp/libc_nano.a(lib_a-printf.o) (__sinit)
/usr/lib/gcc/arm-none-eabi/8.2.0/../../../../arm-none-eabi/lib/thumb/v6-m/nofp/libc_nano.a(lib_a-fwalk.o)
                              /usr/lib/gcc/arm-none-eabi/8.2.0/../../../../arm-none-eabi/lib/thumb/v6-m/nofp/libc_nano.a(lib_a-findfp.o) (_fwalk)
/usr/lib/gcc/arm-none-eabi/8.2.0/../../../../arm-none-eabi/lib/thumb/v6-m/nofp/libc_nano.a(lib_a-makebuf.o)
                              /usr/lib/gcc/arm-none-eabi/8.2.0/../../../../arm-none-eabi/lib/thumb/v6-m/nofp/libc_nano.a(lib_a-wsetup.o) (__smakebuf_r)
/usr/lib/gcc/arm-none-eabi/8.2.0/../../../../arm-none-eabi/lib/thumb/v6-m/nofp/libc_nano.a(lib_a-mlock.o)
                              /usr/lib/gcc/arm-none-eabi/8.2.0/../../../../arm-none-eabi/lib/thumb/v6-m/nofp/libc_nano.a(lib_a-nano-freer.o) (__malloc_lock)
/usr/lib/gcc/arm-none-eabi/8.2.0/../../../../arm-none-eabi/lib/thumb/v6-m/nofp/libc_nano.a(lib_a-nano-vfprintf.o)
                              /usr/lib/gcc/arm-none-eabi/8.2.0/../../../../arm-none-eabi/lib/thumb/v6-m/nofp/libc_nano.a(lib_a-printf.o) (_vfprintf_r)
/usr/lib/gcc/arm-none-eabi/8.2.0/../../../../arm-none-eabi/lib/thumb/v6-m/nofp/libc_nano.a(lib_a-reent.o)
                              /usr/lib/gcc/arm-none-eabi/8.2.0/../../../../arm-none-eabi/lib/thumb/v6-m/nofp/libc_nano.a(lib_a-sbrkr.o) (errno)
/usr/lib/gcc/arm-none-eabi/8.2.0/../../../../arm-none-eabi/lib/thumb/v6-m/nofp/libc_nano.a(lib_a-stdio.o)
                              /usr/lib/gcc/arm-none-eabi/8.2.0/../../../../arm-none-eabi/lib/thumb/v6-m/nofp/libc_nano.a(lib_a-findfp.o) (__sread)
/usr/lib/gcc/arm-none-eabi/8.2.0/../../../../arm-none-eabi/lib/thumb/v6-m/nofp/libc_nano.a(lib_a-writer.o)
                              /usr/lib/gcc/arm-none-eabi/8.2.0/../../../../arm-none-eabi/lib/thumb/v6-m/nofp/libc_nano.a(lib_a-stdio.o) (_write_r)
/usr/lib/gcc/arm-none-eabi/8.2.0/../../../../arm-none-eabi/lib/thumb/v6-m/nofp/libc_nano.a(lib_a-closer.o)
                              /usr/lib/gcc/arm-none-eabi/8.2.0/../../../../arm-none-eabi/lib/thumb/v6-m/nofp/libc_nano.a(lib_a-stdio.o) (_close_r)
/usr/lib/gcc/arm-none-eabi/8.2.0/../../../../arm-none-eabi/lib/thumb/v6-m/nofp/libc_nano.a(lib_a-fstatr.o)
                              /usr/lib/gcc/arm-none-eabi/8.2.0/../../../../arm-none-eabi/lib/thumb/v6-m/nofp/libc_nano.a(lib_a-makebuf.o) (_fstat_r)
/usr/lib/gcc/arm-none-eabi/8.2.0/../../../../arm-none-eabi/lib/thumb/v6-m/nofp/libc_nano.a(lib_a-fvwrite.o)
                              /usr/lib/gcc/arm-none-eabi/8.2.0/../../../../arm-none-eabi/lib/thumb/v6-m/nofp/libc_nano.a(lib_a-nano-vfprintf.o) (__sfvwrite_r)
/usr/lib/gcc/arm-none-eabi/8.2.0/../../../../arm-none-eabi/lib/thumb/v6-m/nofp/libc_nano.a(lib_a-isattyr.o)
                              /usr/lib/gcc/arm-none-eabi/8.2.0/../../../../arm-none-eabi/lib/thumb/v6-m/nofp/libc_nano.a(lib_a-makebuf.o) (_isatty_r)
/usr/lib/gcc/arm-none-eabi/8.2.0/../../../../arm-none-eabi/lib/thumb/v6-m/nofp/libc_nano.a(lib_a-lseekr.o)
                              /usr/lib/gcc/arm-none-eabi/8.2.0/../../../../arm-none-eabi/lib/thumb/v6-m/nofp/libc_nano.a(lib_a-stdio.o) (_lseek_r)
/usr/lib/gcc/arm-none-eabi/8.2.0/../../../../arm-none-eabi/lib/thumb/v6-m/nofp/libc_nano.a(lib_a-memchr-stub.o)
                              /usr/lib/gcc/arm-none-eabi/8.2.0/../../../../arm-none-eabi/lib/thumb/v6-m/nofp/libc_nano.a(lib_a-nano-vfprintf.o) (memchr)
/usr/lib/gcc/arm-none-eabi/8.2.0/../../../../arm-none-eabi/lib/thumb/v6-m/nofp/libc_nano.a(lib_a-memcpy-stub.o)
                              /usr/lib/gcc/arm-none-eabi/8.2.0/../../../../arm-none-eabi/lib/thumb/v6-m/nofp/libc_nano.a(lib_a-fvwrite.o) (memcpy)
/usr/lib/gcc/arm-none-eabi/8.2.0/../../../../arm-none-eabi/lib/thumb/v6-m/nofp/libc_nano.a(lib_a-memmove.o)
                              /usr/lib/gcc/arm-none-eabi/8.2.0/../../../../arm-none-eabi/lib/thumb/v6-m/nofp/libc_nano.a(lib_a-fvwrite.o) (memmove)
/usr/lib/gcc/arm-none-eabi/8.2.0/../../../../arm-none-eabi/lib/thumb/v6-m/nofp/libc_nano.a(lib_a-nano-reallocr.o)
                              /usr/lib/gcc/arm-none-eabi/8.2.0/../../../../arm-none-eabi/lib/thumb/v6-m/nofp/libc_nano.a(lib_a-fvwrite.o) (_realloc_r)
/usr/lib/gcc/arm-none-eabi/8.2.0/../../../../arm-none-eabi/lib/thumb/v6-m/nofp/libc_nano.a(lib_a-nano-vfprintf_i.o)
                              /usr/lib/gcc/arm-none-eabi/8.2.0/../../../../arm-none-eabi/lib/thumb/v6-m/nofp/libc_nano.a(lib_a-nano-vfprintf.o) (_printf_i)
/usr/lib/gcc/arm-none-eabi/8.2.0/../../../../arm-none-eabi/lib/thumb/v6-m/nofp/libc_nano.a(lib_a-readr.o)
                              /usr/lib/gcc/arm-none-eabi/8.2.0/../../../../arm-none-eabi/lib/thumb/v6-m/nofp/libc_nano.a(lib_a-stdio.o) (_read_r)
/usr/lib/gcc/arm-none-eabi/8.2.0/../../../../arm-none-eabi/lib/thumb/v6-m/nofp/libc_nano.a(lib_a-nano-msizer.o)
                              /usr/lib/gcc/arm-none-eabi/8.2.0/../../../../arm-none-eabi/lib/thumb/v6-m/nofp/libc_nano.a(lib_a-nano-reallocr.o) (_malloc_usable_size_r)
/usr/lib/gcc/arm-none-eabi/8.2.0/thumb/v6-m/nofp/libgcc.a(_thumb1_case_uqi.o)
                              build/obj/./driver/stm32f0/spl/src/stm32f0xx_rcc.o (__gnu_thumb1_case_uqi)
/usr/lib/gcc/arm-none-eabi/8.2.0/thumb/v6-m/nofp/libgcc.a(_udivsi3.o)
                              build/obj/./src/timer.opp (__aeabi_uidiv)
/usr/lib/gcc/arm-none-eabi/8.2.0/thumb/v6-m/nofp/libgcc.a(_divsi3.o)
                              build/obj/./driver/stm32f0/spl/src/stm32f0xx_rcc.o (__aeabi_idiv)
/usr/lib/gcc/arm-none-eabi/8.2.0/thumb/v6-m/nofp/libgcc.a(_dvmd_tls.o)
                              /usr/lib/gcc/arm-none-eabi/8.2.0/thumb/v6-m/nofp/libgcc.a(_udivsi3.o) (__aeabi_idiv0)
/usr/lib/gcc/arm-none-eabi/8.2.0/thumb/v6-m/nofp/libgcc.a(_arm_cmpdf2.o)
                              build/obj/./src/LowPassFilter.opp (__aeabi_dcmplt)
/usr/lib/gcc/arm-none-eabi/8.2.0/thumb/v6-m/nofp/libgcc.a(_arm_cmpsf2.o)
                              build/obj/./src/LowPassFilter.opp (__aeabi_fcmplt)
/usr/lib/gcc/arm-none-eabi/8.2.0/thumb/v6-m/nofp/libgcc.a(_fixunssfsi.o)
                              build/obj/./src/timer.opp (__aeabi_f2uiz)
/usr/lib/gcc/arm-none-eabi/8.2.0/thumb/v6-m/nofp/libgcc.a(addsf3.o)
                              build/obj/./src/LowPassFilter.opp (__aeabi_fadd)
/usr/lib/gcc/arm-none-eabi/8.2.0/thumb/v6-m/nofp/libgcc.a(divsf3.o)
                              build/obj/./src/LowPassFilter.opp (__aeabi_fdiv)
/usr/lib/gcc/arm-none-eabi/8.2.0/thumb/v6-m/nofp/libgcc.a(eqsf2.o)
                              /usr/lib/gcc/arm-none-eabi/8.2.0/thumb/v6-m/nofp/libgcc.a(_arm_cmpsf2.o) (__eqsf2)
/usr/lib/gcc/arm-none-eabi/8.2.0/thumb/v6-m/nofp/libgcc.a(gesf2.o)
                              /usr/lib/gcc/arm-none-eabi/8.2.0/thumb/v6-m/nofp/libgcc.a(_arm_cmpsf2.o) (__gesf2)
/usr/lib/gcc/arm-none-eabi/8.2.0/thumb/v6-m/nofp/libgcc.a(lesf2.o)
                              /usr/lib/gcc/arm-none-eabi/8.2.0/thumb/v6-m/nofp/libgcc.a(_arm_cmpsf2.o) (__lesf2)
/usr/lib/gcc/arm-none-eabi/8.2.0/thumb/v6-m/nofp/libgcc.a(mulsf3.o)
                              build/obj/./src/LowPassFilter.opp (__aeabi_fmul)
/usr/lib/gcc/arm-none-eabi/8.2.0/thumb/v6-m/nofp/libgcc.a(subsf3.o)
                              build/obj/./src/LowPassFilter.opp (__aeabi_fsub)
/usr/lib/gcc/arm-none-eabi/8.2.0/thumb/v6-m/nofp/libgcc.a(unordsf2.o)
                              build/obj/./src/LowPassFilter.opp (__aeabi_fcmpun)
/usr/lib/gcc/arm-none-eabi/8.2.0/thumb/v6-m/nofp/libgcc.a(fixsfsi.o)
                              build/obj/./src/LowPassFilter.opp (__aeabi_f2iz)
/usr/lib/gcc/arm-none-eabi/8.2.0/thumb/v6-m/nofp/libgcc.a(floatsisf.o)
                              build/obj/./src/LowPassFilter.opp (__aeabi_i2f)
/usr/lib/gcc/arm-none-eabi/8.2.0/thumb/v6-m/nofp/libgcc.a(floatunsisf.o)
                              build/obj/./src/timer.opp (__aeabi_ui2f)
/usr/lib/gcc/arm-none-eabi/8.2.0/thumb/v6-m/nofp/libgcc.a(adddf3.o)
                              build/obj/./src/LowPassFilter.opp (__aeabi_dadd)
/usr/lib/gcc/arm-none-eabi/8.2.0/thumb/v6-m/nofp/libgcc.a(divdf3.o)
                              build/obj/./src/LowPassFilter.opp (__aeabi_ddiv)
/usr/lib/gcc/arm-none-eabi/8.2.0/thumb/v6-m/nofp/libgcc.a(eqdf2.o)
                              /usr/lib/gcc/arm-none-eabi/8.2.0/thumb/v6-m/nofp/libgcc.a(_arm_cmpdf2.o) (__eqdf2)
/usr/lib/gcc/arm-none-eabi/8.2.0/thumb/v6-m/nofp/libgcc.a(gedf2.o)
                              /usr/lib/gcc/arm-none-eabi/8.2.0/thumb/v6-m/nofp/libgcc.a(_arm_cmpdf2.o) (__gedf2)
/usr/lib/gcc/arm-none-eabi/8.2.0/thumb/v6-m/nofp/libgcc.a(ledf2.o)
                              /usr/lib/gcc/arm-none-eabi/8.2.0/thumb/v6-m/nofp/libgcc.a(_arm_cmpdf2.o) (__ledf2)
/usr/lib/gcc/arm-none-eabi/8.2.0/thumb/v6-m/nofp/libgcc.a(unorddf2.o)
                              build/obj/./src/LowPassFilter.opp (__aeabi_dcmpun)
/usr/lib/gcc/arm-none-eabi/8.2.0/thumb/v6-m/nofp/libgcc.a(_thumb1_case_uhi.o)
                              /usr/lib/gcc/arm-none-eabi/8.2.0/thumb/v6-m/nofp/libgcc.a(divdf3.o) (__gnu_thumb1_case_uhi)
/usr/lib/gcc/arm-none-eabi/8.2.0/thumb/v6-m/nofp/libgcc.a(_clzsi2.o)
                              /usr/lib/gcc/arm-none-eabi/8.2.0/thumb/v6-m/nofp/libgcc.a(addsf3.o) (__clzsi2)
/usr/lib/gcc/arm-none-eabi/8.2.0/../../../../arm-none-eabi/lib/thumb/v6-m/nofp/libnosys.a(close.o)
                              /usr/lib/gcc/arm-none-eabi/8.2.0/../../../../arm-none-eabi/lib/thumb/v6-m/nofp/libc_nano.a(lib_a-closer.o) (_close)
/usr/lib/gcc/arm-none-eabi/8.2.0/../../../../arm-none-eabi/lib/thumb/v6-m/nofp/libnosys.a(fstat.o)
                              /usr/lib/gcc/arm-none-eabi/8.2.0/../../../../arm-none-eabi/lib/thumb/v6-m/nofp/libc_nano.a(lib_a-fstatr.o) (_fstat)
/usr/lib/gcc/arm-none-eabi/8.2.0/../../../../arm-none-eabi/lib/thumb/v6-m/nofp/libnosys.a(getpid.o)
                              /usr/lib/gcc/arm-none-eabi/8.2.0/../../../../arm-none-eabi/lib/thumb/v6-m/nofp/libc_nano.a(lib_a-signalr.o) (_getpid)
/usr/lib/gcc/arm-none-eabi/8.2.0/../../../../arm-none-eabi/lib/thumb/v6-m/nofp/libnosys.a(isatty.o)
                              /usr/lib/gcc/arm-none-eabi/8.2.0/../../../../arm-none-eabi/lib/thumb/v6-m/nofp/libc_nano.a(lib_a-isattyr.o) (_isatty)
/usr/lib/gcc/arm-none-eabi/8.2.0/../../../../arm-none-eabi/lib/thumb/v6-m/nofp/libnosys.a(kill.o)
                              /usr/lib/gcc/arm-none-eabi/8.2.0/../../../../arm-none-eabi/lib/thumb/v6-m/nofp/libc_nano.a(lib_a-signalr.o) (_kill)
/usr/lib/gcc/arm-none-eabi/8.2.0/../../../../arm-none-eabi/lib/thumb/v6-m/nofp/libnosys.a(lseek.o)
                              /usr/lib/gcc/arm-none-eabi/8.2.0/../../../../arm-none-eabi/lib/thumb/v6-m/nofp/libc_nano.a(lib_a-lseekr.o) (_lseek)
/usr/lib/gcc/arm-none-eabi/8.2.0/../../../../arm-none-eabi/lib/thumb/v6-m/nofp/libnosys.a(read.o)
                              /usr/lib/gcc/arm-none-eabi/8.2.0/../../../../arm-none-eabi/lib/thumb/v6-m/nofp/libc_nano.a(lib_a-readr.o) (_read)
/usr/lib/gcc/arm-none-eabi/8.2.0/../../../../arm-none-eabi/lib/thumb/v6-m/nofp/libnosys.a(sbrk.o)
                              /usr/lib/gcc/arm-none-eabi/8.2.0/../../../../arm-none-eabi/lib/thumb/v6-m/nofp/libc_nano.a(lib_a-sbrkr.o) (_sbrk)
/usr/lib/gcc/arm-none-eabi/8.2.0/../../../../arm-none-eabi/lib/thumb/v6-m/nofp/libnosys.a(write.o)
                              /usr/lib/gcc/arm-none-eabi/8.2.0/../../../../arm-none-eabi/lib/thumb/v6-m/nofp/libc_nano.a(lib_a-writer.o) (_write)
/usr/lib/gcc/arm-none-eabi/8.2.0/../../../../arm-none-eabi/lib/thumb/v6-m/nofp/libnosys.a(_exit.o)
                              /usr/lib/gcc/arm-none-eabi/8.2.0/../../../../arm-none-eabi/lib/thumb/v6-m/nofp/libc_nano.a(lib_a-abort.o) (_exit)

Allocating common symbols
Common symbol       size              file

errno               0x4               /usr/lib/gcc/arm-none-eabi/8.2.0/../../../../arm-none-eabi/lib/thumb/v6-m/nofp/libc_nano.a(lib_a-reent.o)

Discarded input sections

 .text          0x0000000000000000        0x0 /usr/lib/gcc/arm-none-eabi/8.2.0/thumb/v6-m/nofp/crti.o
 .data          0x0000000000000000        0x0 /usr/lib/gcc/arm-none-eabi/8.2.0/thumb/v6-m/nofp/crti.o
 .bss           0x0000000000000000        0x0 /usr/lib/gcc/arm-none-eabi/8.2.0/thumb/v6-m/nofp/crti.o
 .text          0x0000000000000000        0x0 /usr/lib/gcc/arm-none-eabi/8.2.0/thumb/v6-m/nofp/crtbegin.o
 .data          0x0000000000000000        0x0 /usr/lib/gcc/arm-none-eabi/8.2.0/thumb/v6-m/nofp/crtbegin.o
 .bss           0x0000000000000000        0x0 /usr/lib/gcc/arm-none-eabi/8.2.0/thumb/v6-m/nofp/crtbegin.o
 .text          0x0000000000000000       0x6c /usr/lib/gcc/arm-none-eabi/8.2.0/../../../../arm-none-eabi/lib/thumb/v6-m/nofp/crt0.o
 .data          0x0000000000000000        0x0 /usr/lib/gcc/arm-none-eabi/8.2.0/../../../../arm-none-eabi/lib/thumb/v6-m/nofp/crt0.o
 .bss           0x0000000000000000        0x0 /usr/lib/gcc/arm-none-eabi/8.2.0/../../../../arm-none-eabi/lib/thumb/v6-m/nofp/crt0.o
 .ARM.extab     0x0000000000000000        0x0 /usr/lib/gcc/arm-none-eabi/8.2.0/../../../../arm-none-eabi/lib/thumb/v6-m/nofp/crt0.o
 .ARM.exidx     0x0000000000000000        0x8 /usr/lib/gcc/arm-none-eabi/8.2.0/../../../../arm-none-eabi/lib/thumb/v6-m/nofp/crt0.o
 .ARM.attributes
                0x0000000000000000       0x1b /usr/lib/gcc/arm-none-eabi/8.2.0/../../../../arm-none-eabi/lib/thumb/v6-m/nofp/crt0.o
 .group         0x0000000000000000        0xc build/obj/./src/LowPassFilter.opp
 .group         0x0000000000000000        0xc build/obj/./src/LowPassFilter.opp
 .group         0x0000000000000000        0xc build/obj/./src/LowPassFilter.opp
 .group         0x0000000000000000        0xc build/obj/./src/LowPassFilter.opp
 .group         0x0000000000000000        0xc build/obj/./src/LowPassFilter.opp
 .group         0x0000000000000000        0xc build/obj/./src/LowPassFilter.opp
 .group         0x0000000000000000        0xc build/obj/./src/LowPassFilter.opp
 .group         0x0000000000000000        0xc build/obj/./src/LowPassFilter.opp
 .group         0x0000000000000000        0xc build/obj/./src/LowPassFilter.opp
 .group         0x0000000000000000        0xc build/obj/./src/LowPassFilter.opp
 .group         0x0000000000000000        0xc build/obj/./src/LowPassFilter.opp
 .group         0x0000000000000000        0x8 build/obj/./src/LowPassFilter.opp
 .group         0x0000000000000000        0xc build/obj/./src/LowPassFilter.opp
 .group         0x0000000000000000        0x8 build/obj/./src/LowPassFilter.opp
 .group         0x0000000000000000        0xc build/obj/./src/LowPassFilter.opp
 .group         0x0000000000000000        0xc build/obj/./src/LowPassFilter.opp
 .group         0x0000000000000000        0xc build/obj/./src/LowPassFilter.opp
 .group         0x0000000000000000        0xc build/obj/./src/LowPassFilter.opp
 .group         0x0000000000000000        0xc build/obj/./src/LowPassFilter.opp
 .group         0x0000000000000000        0xc build/obj/./src/LowPassFilter.opp
 .group         0x0000000000000000        0xc build/obj/./src/LowPassFilter.opp
 .group         0x0000000000000000        0xc build/obj/./src/LowPassFilter.opp
 .group         0x0000000000000000        0x8 build/obj/./src/LowPassFilter.opp
 .group         0x0000000000000000        0xc build/obj/./src/LowPassFilter.opp
 .group         0x0000000000000000        0x8 build/obj/./src/LowPassFilter.opp
 .group         0x0000000000000000        0xc build/obj/./src/LowPassFilter.opp
 .group         0x0000000000000000        0xc build/obj/./src/LowPassFilter.opp
 .group         0x0000000000000000        0xc build/obj/./src/LowPassFilter.opp
 .group         0x0000000000000000        0xc build/obj/./src/LowPassFilter.opp
 .group         0x0000000000000000        0xc build/obj/./src/LowPassFilter.opp
 .group         0x0000000000000000        0xc build/obj/./src/LowPassFilter.opp
 .group         0x0000000000000000        0xc build/obj/./src/LowPassFilter.opp
 .group         0x0000000000000000        0xc build/obj/./src/LowPassFilter.opp
 .group         0x0000000000000000        0x8 build/obj/./src/LowPassFilter.opp
 .group         0x0000000000000000        0xc build/obj/./src/LowPassFilter.opp
 .group         0x0000000000000000        0x8 build/obj/./src/LowPassFilter.opp
 .group         0x0000000000000000        0xc build/obj/./src/LowPassFilter.opp
 .group         0x0000000000000000        0xc build/obj/./src/LowPassFilter.opp
 .group         0x0000000000000000        0xc build/obj/./src/LowPassFilter.opp
 .group         0x0000000000000000        0xc build/obj/./src/LowPassFilter.opp
 .group         0x0000000000000000        0xc build/obj/./src/LowPassFilter.opp
 .group         0x0000000000000000        0x8 build/obj/./src/LowPassFilter.opp
 .group         0x0000000000000000        0x8 build/obj/./src/LowPassFilter.opp
 .group         0x0000000000000000        0x8 build/obj/./src/LowPassFilter.opp
 .group         0x0000000000000000        0x8 build/obj/./src/LowPassFilter.opp
 .group         0x0000000000000000        0xc build/obj/./src/LowPassFilter.opp
 .group         0x0000000000000000        0xc build/obj/./src/LowPassFilter.opp
 .group         0x0000000000000000        0xc build/obj/./src/LowPassFilter.opp
 .group         0x0000000000000000        0x8 build/obj/./src/LowPassFilter.opp
 .group         0x0000000000000000        0x8 build/obj/./src/LowPassFilter.opp
 .group         0x0000000000000000        0x8 build/obj/./src/LowPassFilter.opp
 .group         0x0000000000000000        0xc build/obj/./src/LowPassFilter.opp
 .group         0x0000000000000000        0xc build/obj/./src/LowPassFilter.opp
 .group         0x0000000000000000        0xc build/obj/./src/LowPassFilter.opp
 .group         0x0000000000000000        0x8 build/obj/./src/LowPassFilter.opp
 .group         0x0000000000000000        0x8 build/obj/./src/LowPassFilter.opp
 .group         0x0000000000000000        0x8 build/obj/./src/LowPassFilter.opp
 .group         0x0000000000000000        0xc build/obj/./src/LowPassFilter.opp
 .group         0x0000000000000000        0xc build/obj/./src/LowPassFilter.opp
 .group         0x0000000000000000        0xc build/obj/./src/LowPassFilter.opp
 .group         0x0000000000000000        0x8 build/obj/./src/LowPassFilter.opp
 .group         0x0000000000000000        0x8 build/obj/./src/LowPassFilter.opp
 .text          0x0000000000000000        0x0 build/obj/./src/LowPassFilter.opp
 .data          0x0000000000000000        0x0 build/obj/./src/LowPassFilter.opp
 .bss           0x0000000000000000        0x0 build/obj/./src/LowPassFilter.opp
 .text._ZSt5isnanf
                0x0000000000000000       0x22 build/obj/./src/LowPassFilter.opp
 .text._ZSt5isnand
                0x0000000000000000       0x28 build/obj/./src/LowPassFilter.opp
 .text._Z15constrain_floatfff
                0x0000000000000000       0x22 build/obj/./src/LowPassFilter.opp
 .text._Z15constrain_valueIiET_S0_S0_S0_
                0x0000000000000000       0x4a build/obj/./src/LowPassFilter.opp
 .text._Z15constrain_valueIlET_S0_S0_S0_
                0x0000000000000000       0x4a build/obj/./src/LowPassFilter.opp
 .text._Z15constrain_valueIsET_S0_S0_S0_
                0x0000000000000000       0x86 build/obj/./src/LowPassFilter.opp
 .text._Z15constrain_valueIfET_S0_S0_S0_
                0x0000000000000000       0x5a build/obj/./src/LowPassFilter.opp
 .text._Z15constrain_valueIdET_S0_S0_S0_
                0x0000000000000000       0x7c build/obj/./src/LowPassFilter.opp
 .text._ZN13LowPassFilterIiEC2Ev
                0x0000000000000000       0x22 build/obj/./src/LowPassFilter.opp
 .text._ZN13LowPassFilterIiEC2Ef
                0x0000000000000000       0x24 build/obj/./src/LowPassFilter.opp
 .text._ZN13LowPassFilterIiEC2Eff
                0x0000000000000000       0x2c build/obj/./src/LowPassFilter.opp
 .text._ZN13LowPassFilterIiE20set_cutoff_frequencyEf
                0x0000000000000000       0x18 build/obj/./src/LowPassFilter.opp
 .text._ZN13LowPassFilterIiE20set_cutoff_frequencyEff
                0x0000000000000000       0x28 build/obj/./src/LowPassFilter.opp
 .text._ZNK13LowPassFilterIiE15get_cutoff_freqEv
                0x0000000000000000       0x14 build/obj/./src/LowPassFilter.opp
 .text._ZN13LowPassFilterIiE5applyEif
                0x0000000000000000       0x28 build/obj/./src/LowPassFilter.opp
 .text._ZN13LowPassFilterIiE5applyEi
                0x0000000000000000       0x22 build/obj/./src/LowPassFilter.opp
 .text._ZNK13LowPassFilterIiE3getEv
                0x0000000000000000       0x1c build/obj/./src/LowPassFilter.opp
 .text._ZN13LowPassFilterIiE5resetEi
                0x0000000000000000       0x20 build/obj/./src/LowPassFilter.opp
 .text._ZN13LowPassFilterIiE5resetEv
                0x0000000000000000       0x1a build/obj/./src/LowPassFilter.opp
 .text._ZN13LowPassFilterIlEC2Ev
                0x0000000000000000       0x22 build/obj/./src/LowPassFilter.opp
 .text._ZN13LowPassFilterIlEC2Ef
                0x0000000000000000       0x24 build/obj/./src/LowPassFilter.opp
 .text._ZN13LowPassFilterIlEC2Eff
                0x0000000000000000       0x2c build/obj/./src/LowPassFilter.opp
 .text._ZN13LowPassFilterIlE20set_cutoff_frequencyEf
                0x0000000000000000       0x18 build/obj/./src/LowPassFilter.opp
 .text._ZN13LowPassFilterIlE20set_cutoff_frequencyEff
                0x0000000000000000       0x28 build/obj/./src/LowPassFilter.opp
 .text._ZNK13LowPassFilterIlE15get_cutoff_freqEv
                0x0000000000000000       0x14 build/obj/./src/LowPassFilter.opp
 .text._ZN13LowPassFilterIlE5applyElf
                0x0000000000000000       0x28 build/obj/./src/LowPassFilter.opp
 .text._ZN13LowPassFilterIlE5applyEl
                0x0000000000000000       0x22 build/obj/./src/LowPassFilter.opp
 .text._ZNK13LowPassFilterIlE3getEv
                0x0000000000000000       0x1c build/obj/./src/LowPassFilter.opp
 .text._ZN13LowPassFilterIlE5resetEl
                0x0000000000000000       0x20 build/obj/./src/LowPassFilter.opp
 .text._ZN13LowPassFilterIlE5resetEv
                0x0000000000000000       0x1a build/obj/./src/LowPassFilter.opp
 .text._ZN13LowPassFilterIfEC2Ev
                0x0000000000000000       0x22 build/obj/./src/LowPassFilter.opp
 .text._ZN13LowPassFilterIfEC2Ef
                0x0000000000000000       0x24 build/obj/./src/LowPassFilter.opp
 .text._ZN13LowPassFilterIfEC2Eff
                0x0000000000000000       0x2c build/obj/./src/LowPassFilter.opp
 .text._ZN13LowPassFilterIfE20set_cutoff_frequencyEf
                0x0000000000000000       0x18 build/obj/./src/LowPassFilter.opp
 .text._ZN13LowPassFilterIfE20set_cutoff_frequencyEff
                0x0000000000000000       0x28 build/obj/./src/LowPassFilter.opp
 .text._ZNK13LowPassFilterIfE15get_cutoff_freqEv
                0x0000000000000000       0x14 build/obj/./src/LowPassFilter.opp
 .text._ZN13LowPassFilterIfE5applyEff
                0x0000000000000000       0x28 build/obj/./src/LowPassFilter.opp
 .text._ZN13LowPassFilterIfE5applyEf
                0x0000000000000000       0x22 build/obj/./src/LowPassFilter.opp
 .text._ZNK13LowPassFilterIfE3getEv
                0x0000000000000000       0x1c build/obj/./src/LowPassFilter.opp
 .text._ZN13LowPassFilterIfE5resetEf
                0x0000000000000000       0x20 build/obj/./src/LowPassFilter.opp
 .text._ZN13LowPassFilterIfE5resetEv
                0x0000000000000000       0x1c build/obj/./src/LowPassFilter.opp
 .text._ZSt5isnanIsEN9__gnu_cxx11__enable_ifIXsrSt12__is_integerIT_E7__valueEbE6__typeES3_
                0x0000000000000000       0x16 build/obj/./src/LowPassFilter.opp
 .text._ZSt5isnanIlEN9__gnu_cxx11__enable_ifIXsrSt12__is_integerIT_E7__valueEbE6__typeES3_
                0x0000000000000000       0x12 build/obj/./src/LowPassFilter.opp
 .text._ZSt5isnanIiEN9__gnu_cxx11__enable_ifIXsrSt12__is_integerIT_E7__valueEbE6__typeES3_
                0x0000000000000000       0x12 build/obj/./src/LowPassFilter.opp
 .text._ZN10DigitalLPFIiEC2Ev
                0x0000000000000000       0x20 build/obj/./src/LowPassFilter.opp
 .text._ZN10DigitalLPFIiE13compute_alphaEff
                0x0000000000000000       0x88 build/obj/./src/LowPassFilter.opp
 .text._ZN10DigitalLPFIiE5applyERKiff
                0x0000000000000000       0xc8 build/obj/./src/LowPassFilter.opp
 .text._ZN10DigitalLPFIiE5applyERKi
                0x0000000000000000       0x58 build/obj/./src/LowPassFilter.opp
 .text._ZNK10DigitalLPFIiE3getEv
                0x0000000000000000       0x12 build/obj/./src/LowPassFilter.opp
 .text._ZN10DigitalLPFIiE5resetEi
                0x0000000000000000       0x18 build/obj/./src/LowPassFilter.opp
 .text._ZN10DigitalLPFIlEC2Ev
                0x0000000000000000       0x20 build/obj/./src/LowPassFilter.opp
 .text._ZN10DigitalLPFIlE13compute_alphaEff
                0x0000000000000000       0x88 build/obj/./src/LowPassFilter.opp
 .text._ZN10DigitalLPFIlE5applyERKlff
                0x0000000000000000       0xc8 build/obj/./src/LowPassFilter.opp
 .text._ZN10DigitalLPFIlE5applyERKl
                0x0000000000000000       0x58 build/obj/./src/LowPassFilter.opp
 .text._ZNK10DigitalLPFIlE3getEv
                0x0000000000000000       0x12 build/obj/./src/LowPassFilter.opp
 .text._ZN10DigitalLPFIlE5resetEl
                0x0000000000000000       0x18 build/obj/./src/LowPassFilter.opp
 .text._ZN10DigitalLPFIfEC2Ev
                0x0000000000000000       0x20 build/obj/./src/LowPassFilter.opp
 .text._ZN10DigitalLPFIfE13compute_alphaEff
                0x0000000000000000       0x88 build/obj/./src/LowPassFilter.opp
 .text._ZN10DigitalLPFIfE5applyERKfff
                0x0000000000000000       0xbc build/obj/./src/LowPassFilter.opp
 .text._ZN10DigitalLPFIfE5applyERKf
                0x0000000000000000       0x4c build/obj/./src/LowPassFilter.opp
 .text._ZNK10DigitalLPFIfE3getEv
                0x0000000000000000       0x12 build/obj/./src/LowPassFilter.opp
 .text._ZN10DigitalLPFIfE5resetEf
                0x0000000000000000       0x18 build/obj/./src/LowPassFilter.opp
 .debug_info    0x0000000000000000     0x3f3e build/obj/./src/LowPassFilter.opp
 .debug_abbrev  0x0000000000000000      0x476 build/obj/./src/LowPassFilter.opp
 .debug_aranges
                0x0000000000000000      0x208 build/obj/./src/LowPassFilter.opp
 .debug_ranges  0x0000000000000000      0x1f8 build/obj/./src/LowPassFilter.opp
 .debug_line    0x0000000000000000      0xa31 build/obj/./src/LowPassFilter.opp
 .debug_str     0x0000000000000000     0x1b53 build/obj/./src/LowPassFilter.opp
 .comment       0x0000000000000000       0x1e build/obj/./src/LowPassFilter.opp
 .debug_frame   0x0000000000000000      0x7d0 build/obj/./src/LowPassFilter.opp
 .ARM.attributes
                0x0000000000000000       0x2c build/obj/./src/LowPassFilter.opp
 .group         0x0000000000000000        0xc build/obj/./src/timer.opp
 .group         0x0000000000000000        0xc build/obj/./src/timer.opp
 .group         0x0000000000000000        0x8 build/obj/./src/timer.opp
 .text          0x0000000000000000        0x0 build/obj/./src/timer.opp
 .data          0x0000000000000000        0x0 build/obj/./src/timer.opp
 .bss           0x0000000000000000        0x0 build/obj/./src/timer.opp
 .text._ZN5Timer19setCCPreloadControlE15FunctionalState
                0x0000000000000000       0x26 build/obj/./src/timer.opp
 .text._ZN17TimerChannelInput4initEtttt
                0x0000000000000000       0x56 build/obj/./src/timer.opp
 .text._ZN17TimerChannelInput14setICSelectionEt
                0x0000000000000000       0x1e build/obj/./src/timer.opp
 .text._ZN17TimerChannelInput13setICPolarityEt
                0x0000000000000000       0x1e build/obj/./src/timer.opp
 .text._ZN17TimerChannelInput14setICPrescalerEt
                0x0000000000000000       0x1e build/obj/./src/timer.opp
 .text._ZN17TimerChannelInput11setICFilterEt
                0x0000000000000000       0x1e build/obj/./src/timer.opp
 .text._ZN17TimerChannelInput10setEnabledE15FunctionalState
                0x0000000000000000       0x34 build/obj/./src/timer.opp
 .text._ZN17TimerChannelInput5_initEv
                0x0000000000000000       0x30 build/obj/./src/timer.opp
 .text._ZN18TimerChannelOutput4initEtmtttttt
                0x0000000000000000       0x94 build/obj/./src/timer.opp
 .text._ZN18TimerChannelOutput7setModeEt
                0x0000000000000000       0x32 build/obj/./src/timer.opp
 .text._ZN18TimerChannelOutput7setDutyEt
                0x0000000000000000       0x68 build/obj/./src/timer.opp
 .text._ZN18TimerChannelOutput10setCompareEt
                0x0000000000000000       0x80 build/obj/./src/timer.opp
 .text._ZN18TimerChannelOutput10setEnabledE15FunctionalState
                0x0000000000000000       0x30 build/obj/./src/timer.opp
 .text._ZN18TimerChannelOutput11setEnabledNE15FunctionalState
                0x0000000000000000       0x24 build/obj/./src/timer.opp
 .text._ZN18TimerChannelOutput13preloadConfigE15FunctionalState
                0x0000000000000000       0x94 build/obj/./src/timer.opp
 .text._ZN18TimerChannelOutput5_initEv
                0x0000000000000000       0x72 build/obj/./src/timer.opp
 .text._ZN5Timer4initEtmtth
                0x0000000000000000       0x66 build/obj/./src/timer.opp
 .text._ZN5Timer15interruptConfigEh15FunctionalState
                0x0000000000000000       0x34 build/obj/./src/timer.opp
 .text._ZN5Timer13setAutoreloadEm
                0x0000000000000000       0x26 build/obj/./src/timer.opp
 .text._ZN5Timer13getAutoreloadEv
                0x0000000000000000       0x14 build/obj/./src/timer.opp
 .text._ZN5Timer10setEnabledE15FunctionalState
                0x0000000000000000       0x26 build/obj/./src/timer.opp
 .text._ZN5Timer13_initTimeBaseEv
                0x0000000000000000       0x20 build/obj/./src/timer.opp
 .text._ZN5Timer11_configBDTREv
                0x0000000000000000       0x20 build/obj/./src/timer.opp
 .text._ZN5Timer9_initBDTREv
                0x0000000000000000       0x22 build/obj/./src/timer.opp
 .text._ZN5Timer12setPrescalerEt
                0x0000000000000000       0x2e build/obj/./src/timer.opp
 .text._ZN5Timer12setFrequencyEt
                0x0000000000000000       0x88 build/obj/./src/timer.opp
 .text._ZN5Timer17setFrequencyForceEt
                0x0000000000000000       0x8a build/obj/./src/timer.opp
 .text._ZN11it_callbackC2Ev
                0x0000000000000000       0x18 build/obj/./src/timer.opp
 .text._ZN5Timer11addCallbackEPP11it_callbackPFvvE
                0x0000000000000000       0x5e build/obj/./src/timer.opp
 .text._ZN5Timer15setupUpCallbackEPFvvE
                0x0000000000000000       0x28 build/obj/./src/timer.opp
 .text._ZN5Timer16setupCc1CallbackEPFvvE
                0x0000000000000000       0x88 build/obj/./src/timer.opp
 .text._ZN5Timer16setupCc2CallbackEPFvvE
                0x0000000000000000       0x60 build/obj/./src/timer.opp
 .text._ZN5Timer16setupCc3CallbackEPFvvE
                0x0000000000000000       0x54 build/obj/./src/timer.opp
 .text._ZN5Timer16setupCc4CallbackEPFvvE
                0x0000000000000000       0x54 build/obj/./src/timer.opp
 .group         0x0000000000000000        0xc build/obj/./src/adc.opp
 .group         0x0000000000000000        0xc build/obj/./src/adc.opp
 .group         0x0000000000000000        0xc build/obj/./src/adc.opp
 .group         0x0000000000000000        0xc build/obj/./src/adc.opp
 .group         0x0000000000000000        0x8 build/obj/./src/adc.opp
 .text          0x0000000000000000        0x0 build/obj/./src/adc.opp
 .data          0x0000000000000000        0x0 build/obj/./src/adc.opp
 .bss           0x0000000000000000        0x0 build/obj/./src/adc.opp
 .text._ZN3DmaC2EP19DMA_Channel_TypeDef
                0x0000000000000000       0x22 build/obj/./src/adc.opp
 .text._ZN3Dma4initEmmmmmmmmmmm
                0x0000000000000000       0x68 build/obj/./src/adc.opp
 .text._ZN3Dma10setEnabledE15FunctionalState
                0x0000000000000000       0x26 build/obj/./src/adc.opp
 .text._ZN3Dma12_clockEnableEv
                0x0000000000000000       0x18 build/obj/./src/adc.opp
 .text._ZN10AdcChannelC2Ehh
                0x0000000000000000       0x30 build/obj/./src/adc.opp
 .text._ZN3Adc10addChannelEm
                0x0000000000000000       0xd8 build/obj/./src/adc.opp
 .text._ZN3Adc12_enableClockEv
                0x0000000000000000       0x40 build/obj/./src/adc.opp
 .text._ZN3Adc6enableEv
                0x0000000000000000       0x48 build/obj/./src/adc.opp
 .text._ZN3Adc14waitConversionEv
                0x0000000000000000       0x32 build/obj/./src/adc.opp
 .text._ZN3Adc15startConversionEv
                0x0000000000000000       0x1c build/obj/./src/adc.opp
 .text._ZN3Adc10_calibrateEv
                0x0000000000000000       0x1c build/obj/./src/adc.opp
 .text._ZN3Adc10_dmaConfigEv
                0x0000000000000000       0xe0 build/obj/./src/adc.opp
 .text._ZN3Adc6updateEv
                0x0000000000000000       0xa4 build/obj/./src/adc.opp
 .debug_info    0x0000000000000000      0xd94 build/obj/./src/adc.opp
 .debug_abbrev  0x0000000000000000      0x2de build/obj/./src/adc.opp
 .debug_aranges
                0x0000000000000000       0x80 build/obj/./src/adc.opp
 .debug_ranges  0x0000000000000000       0x70 build/obj/./src/adc.opp
 .debug_line    0x0000000000000000      0x411 build/obj/./src/adc.opp
 .debug_str     0x0000000000000000      0xa7c build/obj/./src/adc.opp
 .comment       0x0000000000000000       0x1e build/obj/./src/adc.opp
 .debug_frame   0x0000000000000000      0x1b4 build/obj/./src/adc.opp
 .ARM.attributes
                0x0000000000000000       0x2c build/obj/./src/adc.opp
 .text          0x0000000000000000        0x0 build/obj/./src/printing.opp
 .data          0x0000000000000000        0x0 build/obj/./src/printing.opp
 .bss           0x0000000000000000        0x0 build/obj/./src/printing.opp
 .text.__io_putchar
                0x0000000000000000       0x74 build/obj/./src/printing.opp
 .rodata.__io_putchar
                0x0000000000000000       0xa0 build/obj/./src/printing.opp
 .text.__io_getchar
                0x0000000000000000        0xc build/obj/./src/printing.opp
 .text.fputc    0x0000000000000000       0x26 build/obj/./src/printing.opp
 .rodata        0x0000000000000000       0xe7 build/obj/./src/printing.opp
 .text._Z12print_clocksv
                0x0000000000000000       0xd8 build/obj/./src/printing.opp
 .text._Z9printBitsjPVv
                0x0000000000000000       0x84 build/obj/./src/printing.opp
 .text._Z5printPKc
                0x0000000000000000       0x30 build/obj/./src/printing.opp
 .text._Z7printlnv
                0x0000000000000000       0x18 build/obj/./src/printing.opp
 .text._Z8printHexm
                0x0000000000000000       0xf4 build/obj/./src/printing.opp
 .text._Z7my_atoiPc
                0x0000000000000000       0x66 build/obj/./src/printing.opp
 .text._Z5printt
                0x0000000000000000       0xe8 build/obj/./src/printing.opp
 .text._Z11my_printIntm
                0x0000000000000000       0xcc build/obj/./src/printing.opp
 .debug_info    0x0000000000000000     0x1248 build/obj/./src/printing.opp
 .debug_abbrev  0x0000000000000000      0x339 build/obj/./src/printing.opp
 .debug_aranges
                0x0000000000000000       0x70 build/obj/./src/printing.opp
 .debug_ranges  0x0000000000000000       0x60 build/obj/./src/printing.opp
 .debug_line    0x0000000000000000      0x42a build/obj/./src/printing.opp
 .debug_str     0x0000000000000000      0xcc8 build/obj/./src/printing.opp
 .comment       0x0000000000000000       0x1e build/obj/./src/printing.opp
 .debug_frame   0x0000000000000000      0x168 build/obj/./src/printing.opp
 .ARM.attributes
                0x0000000000000000       0x2c build/obj/./src/printing.opp
 .text          0x0000000000000000        0x0 build/obj/./src/crc.opp
 .data          0x0000000000000000        0x0 build/obj/./src/crc.opp
 .bss           0x0000000000000000        0x0 build/obj/./src/crc.opp
 .text._Z7crcInitv
                0x0000000000000000       0x24 build/obj/./src/crc.opp
 .text._Z15crcCalcChecksumPmh
                0x0000000000000000       0x5c build/obj/./src/crc.opp
 .text._Z7crcTestv
                0x0000000000000000       0x8c build/obj/./src/crc.opp
 .debug_info    0x0000000000000000      0xe74 build/obj/./src/crc.opp
 .debug_abbrev  0x0000000000000000      0x2c0 build/obj/./src/crc.opp
 .debug_aranges
                0x0000000000000000       0x30 build/obj/./src/crc.opp
 .debug_ranges  0x0000000000000000       0x20 build/obj/./src/crc.opp
 .debug_line    0x0000000000000000      0x1df build/obj/./src/crc.opp
 .debug_str     0x0000000000000000      0x96d build/obj/./src/crc.opp
 .comment       0x0000000000000000       0x1e build/obj/./src/crc.opp
 .debug_frame   0x0000000000000000       0x6c build/obj/./src/crc.opp
 .ARM.attributes
                0x0000000000000000       0x2c build/obj/./src/crc.opp
 .text          0x0000000000000000        0x0 build/obj/./src/helpers.opp
 .data          0x0000000000000000        0x0 build/obj/./src/helpers.opp
 .bss           0x0000000000000000        0x0 build/obj/./src/helpers.opp
 .text._Z11nvic_confighh15FunctionalState
                0x0000000000000000       0x48 build/obj/./src/helpers.opp
 .text._Z3mapfffff
                0x0000000000000000       0x76 build/obj/./src/helpers.opp
 .text.__assert_func
                0x0000000000000000       0x16 build/obj/./src/helpers.opp
 .text.__assert
                0x0000000000000000       0x20 build/obj/./src/helpers.opp
 .debug_info    0x0000000000000000      0x28c build/obj/./src/helpers.opp
 .debug_abbrev  0x0000000000000000      0x14a build/obj/./src/helpers.opp
 .debug_aranges
                0x0000000000000000       0x38 build/obj/./src/helpers.opp
 .debug_ranges  0x0000000000000000       0x28 build/obj/./src/helpers.opp
 .debug_line    0x0000000000000000      0x17c build/obj/./src/helpers.opp
 .debug_str     0x0000000000000000      0x308 build/obj/./src/helpers.opp
 .comment       0x0000000000000000       0x1e build/obj/./src/helpers.opp
 .debug_frame   0x0000000000000000       0x90 build/obj/./src/helpers.opp
 .ARM.attributes
                0x0000000000000000       0x2c build/obj/./src/helpers.opp
 .group         0x0000000000000000        0xc build/obj/./src/uart.opp
 .text          0x0000000000000000        0x0 build/obj/./src/uart.opp
 .data          0x0000000000000000        0x0 build/obj/./src/uart.opp
 .bss           0x0000000000000000        0x0 build/obj/./src/uart.opp
 .text._ZN4Uart8ITConfigEm15FunctionalState
                0x0000000000000000       0x28 build/obj/./src/uart.opp
 .text._ZN4Uart11txSpaceUsedEv
                0x0000000000000000       0x26 build/obj/./src/uart.opp
 .text._ZN4Uart16txSpaceAvailableEv
                0x0000000000000000       0x22 build/obj/./src/uart.opp
 .text._ZN4Uart5writeEPKc
                0x0000000000000000       0x80 build/obj/./src/uart.opp
 .text._ZN4Uart5writeEPKct
                0x0000000000000000       0x48 build/obj/./src/uart.opp
 .text._ZN4Uart9rxWaitingEv
                0x0000000000000000       0x26 build/obj/./src/uart.opp
 .text._ZN4Uart4readEv
                0x0000000000000000       0x5a build/obj/./src/uart.opp
 .rodata._ZZN4Uart3clsEvE3esc
                0x0000000000000000        0x1 build/obj/./src/uart.opp
 .rodata        0x0000000000000000        0x7 build/obj/./src/uart.opp
 .text._ZN4Uart3clsEv
                0x0000000000000000       0x44 build/obj/./src/uart.opp
 .rodata._ZZN4Uart5bkspcEvE5bkspc
                0x0000000000000000        0x1 build/obj/./src/uart.opp
 .text._ZN4Uart5bkspcEv
                0x0000000000000000       0x20 build/obj/./src/uart.opp
 .text          0x0000000000000000        0x0 build/obj/./src/scheduling.opp
 .data          0x0000000000000000        0x0 build/obj/./src/scheduling.opp
 .bss           0x0000000000000000        0x0 build/obj/./src/scheduling.opp
 .text.NVIC_SetPriority
                0x0000000000000000       0xf8 build/obj/./src/scheduling.opp
 .text.SysTick_Config
                0x0000000000000000       0x48 build/obj/./src/scheduling.opp
 .text._Z15configureClocksm
                0x0000000000000000       0x40 build/obj/./src/scheduling.opp
 .text._Z5Delaym
                0x0000000000000000       0x28 build/obj/./src/scheduling.opp
 .text          0x0000000000000000        0x0 build/obj/./src/gpio.opp
 .data          0x0000000000000000        0x0 build/obj/./src/gpio.opp
 .bss           0x0000000000000000        0x0 build/obj/./src/gpio.opp
 .text._ZN4Gpio8configAFEh
                0x0000000000000000       0x28 build/obj/./src/gpio.opp
 .text._ZN4Gpio9readInputEv
                0x0000000000000000       0x44 build/obj/./src/gpio.opp
 .text          0x0000000000000000        0x0 build/obj/./src/flash.opp
 .data          0x0000000000000000        0x0 build/obj/./src/flash.opp
 .bss           0x0000000000000000        0x0 build/obj/./src/flash.opp
 .rodata        0x0000000000000000       0x14 build/obj/./src/flash.opp
 .text._ZN5Flash13printContentsEv
                0x0000000000000000       0xd4 build/obj/./src/flash.opp
 .text._ZN5Flash10printBlockEPt
                0x0000000000000000       0x60 build/obj/./src/flash.opp
 .text._ZN5Flash4initEv
                0x0000000000000000       0xa8 build/obj/./src/flash.opp
 .text._ZN5Flash5eraseEv
                0x0000000000000000       0x5e build/obj/./src/flash.opp
 .text._ZN5Flash9availableEv
                0x0000000000000000       0x2c build/obj/./src/flash.opp
 .text._ZN5Flash12currentBlockEv
                0x0000000000000000       0x3e build/obj/./src/flash.opp
 .text._ZN5Flash14verifyChecksumEv
                0x0000000000000000       0x90 build/obj/./src/flash.opp
 .text._ZN5Flash9readBlockEPth
                0x0000000000000000       0x4a build/obj/./src/flash.opp
 .text._ZN5Flash10writeBlockEPth
                0x0000000000000000       0xbc build/obj/./src/flash.opp
 .debug_info    0x0000000000000000     0x1269 build/obj/./src/flash.opp
 .debug_abbrev  0x0000000000000000      0x335 build/obj/./src/flash.opp
 .debug_aranges
                0x0000000000000000       0x60 build/obj/./src/flash.opp
 .debug_ranges  0x0000000000000000       0x50 build/obj/./src/flash.opp
 .debug_line    0x0000000000000000      0x4dd build/obj/./src/flash.opp
 .debug_str     0x0000000000000000      0xb9a build/obj/./src/flash.opp
 .comment       0x0000000000000000       0x1e build/obj/./src/flash.opp
 .debug_frame   0x0000000000000000      0x130 build/obj/./src/flash.opp
 .ARM.attributes
                0x0000000000000000       0x2c build/obj/./src/flash.opp
 .text          0x0000000000000000        0x0 build/obj/./src/json.opp
 .data          0x0000000000000000        0x0 build/obj/./src/json.opp
 .bss           0x0000000000000000        0x0 build/obj/./src/json.opp
 .rodata._ZL14key_length_max
                0x0000000000000000        0x1 build/obj/./src/json.opp
 .rodata._ZL16value_length_max
                0x0000000000000000        0x1 build/obj/./src/json.opp
 .bss.key       0x0000000000000000       0x11 build/obj/./src/json.opp
 .bss.value     0x0000000000000000       0x11 build/obj/./src/json.opp
 .bss.parse_errors
                0x0000000000000000        0x1 build/obj/./src/json.opp
 .bss._ZZ9parseByteRKcE3len
                0x0000000000000000        0x1 build/obj/./src/json.opp
 .data._ZZ9parseByteRKcE5state
                0x0000000000000000        0x1 build/obj/./src/json.opp
 .text._Z9parseByteRKc
                0x0000000000000000      0x150 build/obj/./src/json.opp
 .rodata._Z9parseByteRKc
                0x0000000000000000       0x18 build/obj/./src/json.opp
 .debug_info    0x0000000000000000     0x1116 build/obj/./src/json.opp
 .debug_abbrev  0x0000000000000000      0x2f2 build/obj/./src/json.opp
 .debug_aranges
                0x0000000000000000       0x20 build/obj/./src/json.opp
 .debug_ranges  0x0000000000000000       0x10 build/obj/./src/json.opp
 .debug_line    0x0000000000000000      0x29c build/obj/./src/json.opp
 .debug_str     0x0000000000000000      0x7f5 build/obj/./src/json.opp
 .comment       0x0000000000000000       0x1e build/obj/./src/json.opp
 .debug_frame   0x0000000000000000       0x30 build/obj/./src/json.opp
 .ARM.attributes
                0x0000000000000000       0x2c build/obj/./src/json.opp
 .text          0x0000000000000000       0xd4 build/obj/./driver/stm32f0/spl/src/stm32f0xx_exti.o
 .data          0x0000000000000000        0x0 build/obj/./driver/stm32f0/spl/src/stm32f0xx_exti.o
 .bss           0x0000000000000000        0x0 build/obj/./driver/stm32f0/spl/src/stm32f0xx_exti.o
 .debug_info    0x0000000000000000      0x353 build/obj/./driver/stm32f0/spl/src/stm32f0xx_exti.o
 .debug_abbrev  0x0000000000000000      0x218 build/obj/./driver/stm32f0/spl/src/stm32f0xx_exti.o
 .debug_loc     0x0000000000000000      0x116 build/obj/./driver/stm32f0/spl/src/stm32f0xx_exti.o
 .debug_aranges
                0x0000000000000000       0x20 build/obj/./driver/stm32f0/spl/src/stm32f0xx_exti.o
 .debug_line    0x0000000000000000      0x251 build/obj/./driver/stm32f0/spl/src/stm32f0xx_exti.o
 .debug_str     0x0000000000000000      0x318 build/obj/./driver/stm32f0/spl/src/stm32f0xx_exti.o
 .comment       0x0000000000000000       0x1e build/obj/./driver/stm32f0/spl/src/stm32f0xx_exti.o
 .debug_frame   0x0000000000000000       0xa4 build/obj/./driver/stm32f0/spl/src/stm32f0xx_exti.o
 .ARM.attributes
                0x0000000000000000       0x2c build/obj/./driver/stm32f0/spl/src/stm32f0xx_exti.o
 .text          0x0000000000000000      0x1e0 build/obj/./driver/stm32f0/spl/src/stm32f0xx_dma.o
 .data          0x0000000000000000        0x0 build/obj/./driver/stm32f0/spl/src/stm32f0xx_dma.o
 .bss           0x0000000000000000        0x0 build/obj/./driver/stm32f0/spl/src/stm32f0xx_dma.o
 .debug_info    0x0000000000000000      0x4fc build/obj/./driver/stm32f0/spl/src/stm32f0xx_dma.o
 .debug_abbrev  0x0000000000000000      0x207 build/obj/./driver/stm32f0/spl/src/stm32f0xx_dma.o
 .debug_loc     0x0000000000000000      0x1ba build/obj/./driver/stm32f0/spl/src/stm32f0xx_dma.o
 .debug_aranges
                0x0000000000000000       0x20 build/obj/./driver/stm32f0/spl/src/stm32f0xx_dma.o
 .debug_line    0x0000000000000000      0x427 build/obj/./driver/stm32f0/spl/src/stm32f0xx_dma.o
 .debug_str     0x0000000000000000      0x3ce build/obj/./driver/stm32f0/spl/src/stm32f0xx_dma.o
 .comment       0x0000000000000000       0x1e build/obj/./driver/stm32f0/spl/src/stm32f0xx_dma.o
 .debug_frame   0x0000000000000000       0xf0 build/obj/./driver/stm32f0/spl/src/stm32f0xx_dma.o
 .ARM.attributes
                0x0000000000000000       0x2c build/obj/./driver/stm32f0/spl/src/stm32f0xx_dma.o
 .text          0x0000000000000000       0x64 build/obj/./driver/stm32f0/spl/src/stm32f0xx_dbgmcu.o
 .data          0x0000000000000000        0x0 build/obj/./driver/stm32f0/spl/src/stm32f0xx_dbgmcu.o
 .bss           0x0000000000000000        0x0 build/obj/./driver/stm32f0/spl/src/stm32f0xx_dbgmcu.o
 .debug_info    0x0000000000000000      0x1d2 build/obj/./driver/stm32f0/spl/src/stm32f0xx_dbgmcu.o
 .debug_abbrev  0x0000000000000000       0xf8 build/obj/./driver/stm32f0/spl/src/stm32f0xx_dbgmcu.o
 .debug_aranges
                0x0000000000000000       0x20 build/obj/./driver/stm32f0/spl/src/stm32f0xx_dbgmcu.o
 .debug_line    0x0000000000000000      0x19a build/obj/./driver/stm32f0/spl/src/stm32f0xx_dbgmcu.o
 .debug_str     0x0000000000000000      0x20c build/obj/./driver/stm32f0/spl/src/stm32f0xx_dbgmcu.o
 .comment       0x0000000000000000       0x1e build/obj/./driver/stm32f0/spl/src/stm32f0xx_dbgmcu.o
 .debug_frame   0x0000000000000000       0x60 build/obj/./driver/stm32f0/spl/src/stm32f0xx_dbgmcu.o
 .ARM.attributes
                0x0000000000000000       0x2c build/obj/./driver/stm32f0/spl/src/stm32f0xx_dbgmcu.o
 .text          0x0000000000000000      0x1b4 build/obj/./driver/stm32f0/spl/src/stm32f0xx_dac.o
 .data          0x0000000000000000        0x0 build/obj/./driver/stm32f0/spl/src/stm32f0xx_dac.o
 .bss           0x0000000000000000        0x0 build/obj/./driver/stm32f0/spl/src/stm32f0xx_dac.o
 .debug_info    0x0000000000000000      0x716 build/obj/./driver/stm32f0/spl/src/stm32f0xx_dac.o
 .debug_abbrev  0x0000000000000000      0x263 build/obj/./driver/stm32f0/spl/src/stm32f0xx_dac.o
 .debug_loc     0x0000000000000000      0x465 build/obj/./driver/stm32f0/spl/src/stm32f0xx_dac.o
 .debug_aranges
                0x0000000000000000       0x20 build/obj/./driver/stm32f0/spl/src/stm32f0xx_dac.o
 .debug_line    0x0000000000000000      0x3fc build/obj/./driver/stm32f0/spl/src/stm32f0xx_dac.o
 .debug_str     0x0000000000000000      0x436 build/obj/./driver/stm32f0/spl/src/stm32f0xx_dac.o
 .comment       0x0000000000000000       0x1e build/obj/./driver/stm32f0/spl/src/stm32f0xx_dac.o
 .debug_frame   0x0000000000000000      0x148 build/obj/./driver/stm32f0/spl/src/stm32f0xx_dac.o
 .ARM.attributes
                0x0000000000000000       0x2c build/obj/./driver/stm32f0/spl/src/stm32f0xx_dac.o
 .text          0x0000000000000000      0x728 build/obj/./driver/stm32f0/spl/src/stm32f0xx_can.o
 .data          0x0000000000000000        0x0 build/obj/./driver/stm32f0/spl/src/stm32f0xx_can.o
 .bss           0x0000000000000000        0x0 build/obj/./driver/stm32f0/spl/src/stm32f0xx_can.o
 .debug_info    0x0000000000000000     0x110c build/obj/./driver/stm32f0/spl/src/stm32f0xx_can.o
 .debug_abbrev  0x0000000000000000      0x303 build/obj/./driver/stm32f0/spl/src/stm32f0xx_can.o
 .debug_loc     0x0000000000000000      0xc0f build/obj/./driver/stm32f0/spl/src/stm32f0xx_can.o
 .debug_aranges
                0x0000000000000000       0x20 build/obj/./driver/stm32f0/spl/src/stm32f0xx_can.o
 .debug_ranges  0x0000000000000000       0x48 build/obj/./driver/stm32f0/spl/src/stm32f0xx_can.o
 .debug_line    0x0000000000000000      0xc60 build/obj/./driver/stm32f0/spl/src/stm32f0xx_can.o
 .debug_str     0x0000000000000000      0x721 build/obj/./driver/stm32f0/spl/src/stm32f0xx_can.o
 .comment       0x0000000000000000       0x1e build/obj/./driver/stm32f0/spl/src/stm32f0xx_can.o
 .debug_frame   0x0000000000000000      0x1ec build/obj/./driver/stm32f0/spl/src/stm32f0xx_can.o
 .ARM.attributes
                0x0000000000000000       0x2c build/obj/./driver/stm32f0/spl/src/stm32f0xx_can.o
 .text          0x0000000000000000      0x9ec build/obj/./driver/stm32f0/spl/src/stm32f0xx_rtc.o
 .data          0x0000000000000000        0x0 build/obj/./driver/stm32f0/spl/src/stm32f0xx_rtc.o
 .bss           0x0000000000000000        0x0 build/obj/./driver/stm32f0/spl/src/stm32f0xx_rtc.o
 .debug_info    0x0000000000000000     0x13f3 build/obj/./driver/stm32f0/spl/src/stm32f0xx_rtc.o
 .debug_abbrev  0x0000000000000000      0x278 build/obj/./driver/stm32f0/spl/src/stm32f0xx_rtc.o
 .debug_loc     0x0000000000000000      0xe4d build/obj/./driver/stm32f0/spl/src/stm32f0xx_rtc.o
 .debug_aranges
                0x0000000000000000       0x20 build/obj/./driver/stm32f0/spl/src/stm32f0xx_rtc.o
 .debug_line    0x0000000000000000     0x1295 build/obj/./driver/stm32f0/spl/src/stm32f0xx_rtc.o
 .debug_str     0x0000000000000000      0xa30 build/obj/./driver/stm32f0/spl/src/stm32f0xx_rtc.o
 .comment       0x0000000000000000       0x1e build/obj/./driver/stm32f0/spl/src/stm32f0xx_rtc.o
 .debug_frame   0x0000000000000000      0x470 build/obj/./driver/stm32f0/spl/src/stm32f0xx_rtc.o
 .ARM.attributes
                0x0000000000000000       0x2c build/obj/./driver/stm32f0/spl/src/stm32f0xx_rtc.o
 .text          0x0000000000000000      0x128 build/obj/./driver/stm32f0/spl/src/stm32f0xx_pwr.o
 .data          0x0000000000000000        0x0 build/obj/./driver/stm32f0/spl/src/stm32f0xx_pwr.o
 .bss           0x0000000000000000        0x0 build/obj/./driver/stm32f0/spl/src/stm32f0xx_pwr.o
 .debug_info    0x0000000000000000      0x4c3 build/obj/./driver/stm32f0/spl/src/stm32f0xx_pwr.o
 .debug_abbrev  0x0000000000000000      0x1e3 build/obj/./driver/stm32f0/spl/src/stm32f0xx_pwr.o
 .debug_loc     0x0000000000000000      0x155 build/obj/./driver/stm32f0/spl/src/stm32f0xx_pwr.o
 .debug_aranges
                0x0000000000000000       0x20 build/obj/./driver/stm32f0/spl/src/stm32f0xx_pwr.o
 .debug_line    0x0000000000000000      0x376 build/obj/./driver/stm32f0/spl/src/stm32f0xx_pwr.o
 .debug_str     0x0000000000000000      0x321 build/obj/./driver/stm32f0/spl/src/stm32f0xx_pwr.o
 .comment       0x0000000000000000       0x1e build/obj/./driver/stm32f0/spl/src/stm32f0xx_pwr.o
 .debug_frame   0x0000000000000000       0xc0 build/obj/./driver/stm32f0/spl/src/stm32f0xx_pwr.o
 .ARM.attributes
                0x0000000000000000       0x2c build/obj/./driver/stm32f0/spl/src/stm32f0xx_pwr.o
 .text          0x0000000000000000      0x40c build/obj/./driver/stm32f0/spl/src/stm32f0xx_i2c.o
 .data          0x0000000000000000        0x0 build/obj/./driver/stm32f0/spl/src/stm32f0xx_i2c.o
 .bss           0x0000000000000000        0x0 build/obj/./driver/stm32f0/spl/src/stm32f0xx_i2c.o
 .debug_info    0x0000000000000000      0xd15 build/obj/./driver/stm32f0/spl/src/stm32f0xx_i2c.o
 .debug_abbrev  0x0000000000000000      0x24e build/obj/./driver/stm32f0/spl/src/stm32f0xx_i2c.o
 .debug_loc     0x0000000000000000      0x65f build/obj/./driver/stm32f0/spl/src/stm32f0xx_i2c.o
 .debug_aranges
                0x0000000000000000       0x20 build/obj/./driver/stm32f0/spl/src/stm32f0xx_i2c.o
 .debug_line    0x0000000000000000      0x825 build/obj/./driver/stm32f0/spl/src/stm32f0xx_i2c.o
 .debug_str     0x0000000000000000      0x63a build/obj/./driver/stm32f0/spl/src/stm32f0xx_i2c.o
 .comment       0x0000000000000000       0x1e build/obj/./driver/stm32f0/spl/src/stm32f0xx_i2c.o
 .debug_frame   0x0000000000000000      0x2e4 build/obj/./driver/stm32f0/spl/src/stm32f0xx_i2c.o
 .ARM.attributes
                0x0000000000000000       0x2c build/obj/./driver/stm32f0/spl/src/stm32f0xx_i2c.o
 .text          0x0000000000000000      0x19c build/obj/./driver/stm32f0/spl/src/stm32f0xx_crs.o
 .data          0x0000000000000000        0x0 build/obj/./driver/stm32f0/spl/src/stm32f0xx_crs.o
 .bss           0x0000000000000000        0x0 build/obj/./driver/stm32f0/spl/src/stm32f0xx_crs.o
 .debug_info    0x0000000000000000      0x429 build/obj/./driver/stm32f0/spl/src/stm32f0xx_crs.o
 .debug_abbrev  0x0000000000000000      0x1ff build/obj/./driver/stm32f0/spl/src/stm32f0xx_crs.o
 .debug_loc     0x0000000000000000       0x6f build/obj/./driver/stm32f0/spl/src/stm32f0xx_crs.o
 .debug_aranges
                0x0000000000000000       0x20 build/obj/./driver/stm32f0/spl/src/stm32f0xx_crs.o
 .debug_line    0x0000000000000000      0x2ff build/obj/./driver/stm32f0/spl/src/stm32f0xx_crs.o
 .debug_str     0x0000000000000000      0x429 build/obj/./driver/stm32f0/spl/src/stm32f0xx_crs.o
 .comment       0x0000000000000000       0x1e build/obj/./driver/stm32f0/spl/src/stm32f0xx_crs.o
 .debug_frame   0x0000000000000000      0x150 build/obj/./driver/stm32f0/spl/src/stm32f0xx_crs.o
 .ARM.attributes
                0x0000000000000000       0x2c build/obj/./driver/stm32f0/spl/src/stm32f0xx_crs.o
 .bss           0x0000000000000000        0x0 build/obj/./driver/stm32f0/spl/src/stm32f0xx_rcc.o
 .text          0x0000000000000000       0x64 build/obj/./driver/stm32f0/spl/src/stm32f0xx_iwdg.o
 .data          0x0000000000000000        0x0 build/obj/./driver/stm32f0/spl/src/stm32f0xx_iwdg.o
 .bss           0x0000000000000000        0x0 build/obj/./driver/stm32f0/spl/src/stm32f0xx_iwdg.o
 .debug_info    0x0000000000000000      0x243 build/obj/./driver/stm32f0/spl/src/stm32f0xx_iwdg.o
 .debug_abbrev  0x0000000000000000      0x15f build/obj/./driver/stm32f0/spl/src/stm32f0xx_iwdg.o
 .debug_loc     0x0000000000000000       0x53 build/obj/./driver/stm32f0/spl/src/stm32f0xx_iwdg.o
 .debug_aranges
                0x0000000000000000       0x20 build/obj/./driver/stm32f0/spl/src/stm32f0xx_iwdg.o
 .debug_line    0x0000000000000000      0x1a6 build/obj/./driver/stm32f0/spl/src/stm32f0xx_iwdg.o
 .debug_str     0x0000000000000000      0x25d build/obj/./driver/stm32f0/spl/src/stm32f0xx_iwdg.o
 .comment       0x0000000000000000       0x1e build/obj/./driver/stm32f0/spl/src/stm32f0xx_iwdg.o
 .debug_frame   0x0000000000000000       0x80 build/obj/./driver/stm32f0/spl/src/stm32f0xx_iwdg.o
 .ARM.attributes
                0x0000000000000000       0x2c build/obj/./driver/stm32f0/spl/src/stm32f0xx_iwdg.o
 .text          0x0000000000000000      0x5c0 build/obj/./driver/stm32f0/spl/src/stm32f0xx_flash.o
 .data          0x0000000000000000        0x0 build/obj/./driver/stm32f0/spl/src/stm32f0xx_flash.o
 .bss           0x0000000000000000        0x0 build/obj/./driver/stm32f0/spl/src/stm32f0xx_flash.o
 .debug_info    0x0000000000000000      0xc93 build/obj/./driver/stm32f0/spl/src/stm32f0xx_flash.o
 .debug_abbrev  0x0000000000000000      0x27f build/obj/./driver/stm32f0/spl/src/stm32f0xx_flash.o
 .debug_loc     0x0000000000000000      0xa5b build/obj/./driver/stm32f0/spl/src/stm32f0xx_flash.o
 .debug_aranges
                0x0000000000000000       0x20 build/obj/./driver/stm32f0/spl/src/stm32f0xx_flash.o
 .debug_line    0x0000000000000000      0x9df build/obj/./driver/stm32f0/spl/src/stm32f0xx_flash.o
 .debug_str     0x0000000000000000      0x5b7 build/obj/./driver/stm32f0/spl/src/stm32f0xx_flash.o
 .comment       0x0000000000000000       0x1e build/obj/./driver/stm32f0/spl/src/stm32f0xx_flash.o
 .debug_frame   0x0000000000000000      0x2d4 build/obj/./driver/stm32f0/spl/src/stm32f0xx_flash.o
 .ARM.attributes
                0x0000000000000000       0x2c build/obj/./driver/stm32f0/spl/src/stm32f0xx_flash.o
 .text          0x0000000000000000       0xd8 build/obj/./driver/stm32f0/spl/src/stm32f0xx_syscfg.o
 .data          0x0000000000000000        0x0 build/obj/./driver/stm32f0/spl/src/stm32f0xx_syscfg.o
 .bss           0x0000000000000000        0x0 build/obj/./driver/stm32f0/spl/src/stm32f0xx_syscfg.o
 .debug_info    0x0000000000000000      0x37a build/obj/./driver/stm32f0/spl/src/stm32f0xx_syscfg.o
 .debug_abbrev  0x0000000000000000      0x1f3 build/obj/./driver/stm32f0/spl/src/stm32f0xx_syscfg.o
 .debug_loc     0x0000000000000000      0x127 build/obj/./driver/stm32f0/spl/src/stm32f0xx_syscfg.o
 .debug_aranges
                0x0000000000000000       0x20 build/obj/./driver/stm32f0/spl/src/stm32f0xx_syscfg.o
 .debug_line    0x0000000000000000      0x249 build/obj/./driver/stm32f0/spl/src/stm32f0xx_syscfg.o
 .debug_str     0x0000000000000000      0x361 build/obj/./driver/stm32f0/spl/src/stm32f0xx_syscfg.o
 .comment       0x0000000000000000       0x1e build/obj/./driver/stm32f0/spl/src/stm32f0xx_syscfg.o
 .debug_frame   0x0000000000000000       0xc8 build/obj/./driver/stm32f0/spl/src/stm32f0xx_syscfg.o
 .ARM.attributes
                0x0000000000000000       0x2c build/obj/./driver/stm32f0/spl/src/stm32f0xx_syscfg.o
 .text          0x0000000000000000       0xec build/obj/./driver/stm32f0/spl/src/stm32f0xx_crc.o
 .data          0x0000000000000000        0x0 build/obj/./driver/stm32f0/spl/src/stm32f0xx_crc.o
 .bss           0x0000000000000000        0x0 build/obj/./driver/stm32f0/spl/src/stm32f0xx_crc.o
 .debug_info    0x0000000000000000      0x3c5 build/obj/./driver/stm32f0/spl/src/stm32f0xx_crc.o
 .debug_abbrev  0x0000000000000000      0x1d4 build/obj/./driver/stm32f0/spl/src/stm32f0xx_crc.o
 .debug_loc     0x0000000000000000      0x10f build/obj/./driver/stm32f0/spl/src/stm32f0xx_crc.o
 .debug_aranges
                0x0000000000000000       0x20 build/obj/./driver/stm32f0/spl/src/stm32f0xx_crc.o
 .debug_line    0x0000000000000000      0x2b4 build/obj/./driver/stm32f0/spl/src/stm32f0xx_crc.o
 .debug_str     0x0000000000000000      0x334 build/obj/./driver/stm32f0/spl/src/stm32f0xx_crc.o
 .comment       0x0000000000000000       0x1e build/obj/./driver/stm32f0/spl/src/stm32f0xx_crc.o
 .debug_frame   0x0000000000000000       0xf0 build/obj/./driver/stm32f0/spl/src/stm32f0xx_crc.o
 .ARM.attributes
                0x0000000000000000       0x2c build/obj/./driver/stm32f0/spl/src/stm32f0xx_crc.o
 .data          0x0000000000000000        0x0 build/obj/./driver/stm32f0/spl/src/stm32f0xx_usart.o
 .bss           0x0000000000000000        0x0 build/obj/./driver/stm32f0/spl/src/stm32f0xx_usart.o
 .text          0x0000000000000000      0x154 build/obj/./driver/stm32f0/spl/src/stm32f0xx_cec.o
 .data          0x0000000000000000        0x0 build/obj/./driver/stm32f0/spl/src/stm32f0xx_cec.o
 .bss           0x0000000000000000        0x0 build/obj/./driver/stm32f0/spl/src/stm32f0xx_cec.o
 .debug_info    0x0000000000000000      0x4e8 build/obj/./driver/stm32f0/spl/src/stm32f0xx_cec.o
 .debug_abbrev  0x0000000000000000      0x22a build/obj/./driver/stm32f0/spl/src/stm32f0xx_cec.o
 .debug_loc     0x0000000000000000      0x20f build/obj/./driver/stm32f0/spl/src/stm32f0xx_cec.o
 .debug_aranges
                0x0000000000000000       0x20 build/obj/./driver/stm32f0/spl/src/stm32f0xx_cec.o
 .debug_line    0x0000000000000000      0x366 build/obj/./driver/stm32f0/spl/src/stm32f0xx_cec.o
 .debug_str     0x0000000000000000      0x3c0 build/obj/./driver/stm32f0/spl/src/stm32f0xx_cec.o
 .comment       0x0000000000000000       0x1e build/obj/./driver/stm32f0/spl/src/stm32f0xx_cec.o
 .debug_frame   0x0000000000000000      0x120 build/obj/./driver/stm32f0/spl/src/stm32f0xx_cec.o
 .ARM.attributes
                0x0000000000000000       0x2c build/obj/./driver/stm32f0/spl/src/stm32f0xx_cec.o
 .text          0x0000000000000000       0x84 build/obj/./driver/stm32f0/spl/src/stm32f0xx_misc.o
 .data          0x0000000000000000        0x0 build/obj/./driver/stm32f0/spl/src/stm32f0xx_misc.o
 .bss           0x0000000000000000        0x0 build/obj/./driver/stm32f0/spl/src/stm32f0xx_misc.o
 .debug_info    0x0000000000000000      0x3a4 build/obj/./driver/stm32f0/spl/src/stm32f0xx_misc.o
 .debug_abbrev  0x0000000000000000      0x177 build/obj/./driver/stm32f0/spl/src/stm32f0xx_misc.o
 .debug_loc     0x0000000000000000       0x9b build/obj/./driver/stm32f0/spl/src/stm32f0xx_misc.o
 .debug_aranges
                0x0000000000000000       0x20 build/obj/./driver/stm32f0/spl/src/stm32f0xx_misc.o
 .debug_line    0x0000000000000000      0x20b build/obj/./driver/stm32f0/spl/src/stm32f0xx_misc.o
 .debug_str     0x0000000000000000      0x2df build/obj/./driver/stm32f0/spl/src/stm32f0xx_misc.o
 .comment       0x0000000000000000       0x1e build/obj/./driver/stm32f0/spl/src/stm32f0xx_misc.o
 .debug_frame   0x0000000000000000       0x50 build/obj/./driver/stm32f0/spl/src/stm32f0xx_misc.o
 .ARM.attributes
                0x0000000000000000       0x2c build/obj/./driver/stm32f0/spl/src/stm32f0xx_misc.o
 .text          0x0000000000000000       0xa4 build/obj/./driver/stm32f0/spl/src/stm32f0xx_wwdg.o
 .data          0x0000000000000000        0x0 build/obj/./driver/stm32f0/spl/src/stm32f0xx_wwdg.o
 .bss           0x0000000000000000        0x0 build/obj/./driver/stm32f0/spl/src/stm32f0xx_wwdg.o
 .debug_info    0x0000000000000000      0x2bb build/obj/./driver/stm32f0/spl/src/stm32f0xx_wwdg.o
 .debug_abbrev  0x0000000000000000      0x1aa build/obj/./driver/stm32f0/spl/src/stm32f0xx_wwdg.o
 .debug_loc     0x0000000000000000       0xb9 build/obj/./driver/stm32f0/spl/src/stm32f0xx_wwdg.o
 .debug_aranges
                0x0000000000000000       0x20 build/obj/./driver/stm32f0/spl/src/stm32f0xx_wwdg.o
 .debug_line    0x0000000000000000      0x224 build/obj/./driver/stm32f0/spl/src/stm32f0xx_wwdg.o
 .debug_str     0x0000000000000000      0x26e build/obj/./driver/stm32f0/spl/src/stm32f0xx_wwdg.o
 .comment       0x0000000000000000       0x1e build/obj/./driver/stm32f0/spl/src/stm32f0xx_wwdg.o
 .debug_frame   0x0000000000000000       0x9c build/obj/./driver/stm32f0/spl/src/stm32f0xx_wwdg.o
 .ARM.attributes
                0x0000000000000000       0x2c build/obj/./driver/stm32f0/spl/src/stm32f0xx_wwdg.o
 .text          0x0000000000000000      0x288 build/obj/./driver/stm32f0/spl/src/stm32f0xx_adc.o
 .data          0x0000000000000000        0x0 build/obj/./driver/stm32f0/spl/src/stm32f0xx_adc.o
 .bss           0x0000000000000000        0x0 build/obj/./driver/stm32f0/spl/src/stm32f0xx_adc.o
 .debug_info    0x0000000000000000      0x9d1 build/obj/./driver/stm32f0/spl/src/stm32f0xx_adc.o
 .debug_abbrev  0x0000000000000000      0x244 build/obj/./driver/stm32f0/spl/src/stm32f0xx_adc.o
 .debug_loc     0x0000000000000000      0x36a build/obj/./driver/stm32f0/spl/src/stm32f0xx_adc.o
 .debug_aranges
                0x0000000000000000       0x20 build/obj/./driver/stm32f0/spl/src/stm32f0xx_adc.o
 .debug_line    0x0000000000000000      0x58b build/obj/./driver/stm32f0/spl/src/stm32f0xx_adc.o
 .debug_str     0x0000000000000000      0x5c5 build/obj/./driver/stm32f0/spl/src/stm32f0xx_adc.o
 .comment       0x0000000000000000       0x1e build/obj/./driver/stm32f0/spl/src/stm32f0xx_adc.o
 .debug_frame   0x0000000000000000      0x200 build/obj/./driver/stm32f0/spl/src/stm32f0xx_adc.o
 .ARM.attributes
                0x0000000000000000       0x2c build/obj/./driver/stm32f0/spl/src/stm32f0xx_adc.o
 .data          0x0000000000000000        0x0 build/obj/./driver/stm32f0/spl/src/stm32f0xx_tim.o
 .bss           0x0000000000000000        0x0 build/obj/./driver/stm32f0/spl/src/stm32f0xx_tim.o
 .text          0x0000000000000000      0x320 build/obj/./driver/stm32f0/spl/src/stm32f0xx_spi.o
 .data          0x0000000000000000        0x0 build/obj/./driver/stm32f0/spl/src/stm32f0xx_spi.o
 .bss           0x0000000000000000        0x0 build/obj/./driver/stm32f0/spl/src/stm32f0xx_spi.o
 .debug_info    0x0000000000000000      0xc93 build/obj/./driver/stm32f0/spl/src/stm32f0xx_spi.o
 .debug_abbrev  0x0000000000000000      0x221 build/obj/./driver/stm32f0/spl/src/stm32f0xx_spi.o
 .debug_loc     0x0000000000000000      0x780 build/obj/./driver/stm32f0/spl/src/stm32f0xx_spi.o
 .debug_aranges
                0x0000000000000000       0x20 build/obj/./driver/stm32f0/spl/src/stm32f0xx_spi.o
 .debug_line    0x0000000000000000      0x6e9 build/obj/./driver/stm32f0/spl/src/stm32f0xx_spi.o
 .debug_str     0x0000000000000000      0x760 build/obj/./driver/stm32f0/spl/src/stm32f0xx_spi.o
 .comment       0x0000000000000000       0x1e build/obj/./driver/stm32f0/spl/src/stm32f0xx_spi.o
 .debug_frame   0x0000000000000000      0x22c build/obj/./driver/stm32f0/spl/src/stm32f0xx_spi.o
 .ARM.attributes
                0x0000000000000000       0x2c build/obj/./driver/stm32f0/spl/src/stm32f0xx_spi.o
 .data          0x0000000000000000        0x0 build/obj/./driver/stm32f0/spl/src/stm32f0xx_gpio.o
 .bss           0x0000000000000000        0x0 build/obj/./driver/stm32f0/spl/src/stm32f0xx_gpio.o
 .text          0x0000000000000000       0xdc build/obj/./driver/stm32f0/spl/src/stm32f0xx_comp.o
 .data          0x0000000000000000        0x0 build/obj/./driver/stm32f0/spl/src/stm32f0xx_comp.o
 .bss           0x0000000000000000        0x0 build/obj/./driver/stm32f0/spl/src/stm32f0xx_comp.o
 .debug_info    0x0000000000000000      0x2b7 build/obj/./driver/stm32f0/spl/src/stm32f0xx_comp.o
 .debug_abbrev  0x0000000000000000      0x1a9 build/obj/./driver/stm32f0/spl/src/stm32f0xx_comp.o
 .debug_loc     0x0000000000000000       0xe2 build/obj/./driver/stm32f0/spl/src/stm32f0xx_comp.o
 .debug_aranges
                0x0000000000000000       0x20 build/obj/./driver/stm32f0/spl/src/stm32f0xx_comp.o
 .debug_line    0x0000000000000000      0x275 build/obj/./driver/stm32f0/spl/src/stm32f0xx_comp.o
 .debug_str     0x0000000000000000      0x280 build/obj/./driver/stm32f0/spl/src/stm32f0xx_comp.o
 .comment       0x0000000000000000       0x1e build/obj/./driver/stm32f0/spl/src/stm32f0xx_comp.o
 .debug_frame   0x0000000000000000       0x9c build/obj/./driver/stm32f0/spl/src/stm32f0xx_comp.o
 .ARM.attributes
                0x0000000000000000       0x2c build/obj/./driver/stm32f0/spl/src/stm32f0xx_comp.o
 .bss           0x0000000000000000        0x0 build/obj/./driver/stm32f0/cmsis/device/system_stm32f0xx.o
 .text          0x0000000000000000       0x14 build/obj/./src/startup/startup_stm32f0.os
 .data          0x0000000000000000        0x0 build/obj/./src/startup/startup_stm32f0.os
 .bss           0x0000000000000000        0x0 build/obj/./src/startup/startup_stm32f0.os
 .text          0x0000000000000000        0x0 build/obj/src/example/example-gpio.opp
 .data          0x0000000000000000        0x0 build/obj/src/example/example-gpio.opp
 .bss           0x0000000000000000        0x0 build/obj/src/example/example-gpio.opp
 .rodata._ZL8delay_ms
                0x0000000000000000        0x4 build/obj/src/example/example-gpio.opp
 .text          0x0000000000000000        0x0 /usr/lib/gcc/arm-none-eabi/8.2.0/../../../../arm-none-eabi/lib/thumb/v6-m/nofp/libstdc++_nano.a(new_op.o)
 .data          0x0000000000000000        0x0 /usr/lib/gcc/arm-none-eabi/8.2.0/../../../../arm-none-eabi/lib/thumb/v6-m/nofp/libstdc++_nano.a(new_op.o)
 .bss           0x0000000000000000        0x0 /usr/lib/gcc/arm-none-eabi/8.2.0/../../../../arm-none-eabi/lib/thumb/v6-m/nofp/libstdc++_nano.a(new_op.o)
 .text._Znwj    0x0000000000000000       0x24 /usr/lib/gcc/arm-none-eabi/8.2.0/../../../../arm-none-eabi/lib/thumb/v6-m/nofp/libstdc++_nano.a(new_op.o)
 .debug_frame   0x0000000000000000       0x28 /usr/lib/gcc/arm-none-eabi/8.2.0/../../../../arm-none-eabi/lib/thumb/v6-m/nofp/libstdc++_nano.a(new_op.o)
 .ARM.attributes
                0x0000000000000000       0x2c /usr/lib/gcc/arm-none-eabi/8.2.0/../../../../arm-none-eabi/lib/thumb/v6-m/nofp/libstdc++_nano.a(new_op.o)
 .text          0x0000000000000000        0x0 /usr/lib/gcc/arm-none-eabi/8.2.0/../../../../arm-none-eabi/lib/thumb/v6-m/nofp/libstdc++_nano.a(atexit_arm.o)
 .data          0x0000000000000000        0x0 /usr/lib/gcc/arm-none-eabi/8.2.0/../../../../arm-none-eabi/lib/thumb/v6-m/nofp/libstdc++_nano.a(atexit_arm.o)
 .bss           0x0000000000000000        0x0 /usr/lib/gcc/arm-none-eabi/8.2.0/../../../../arm-none-eabi/lib/thumb/v6-m/nofp/libstdc++_nano.a(atexit_arm.o)
 .text          0x0000000000000000        0x0 /usr/lib/gcc/arm-none-eabi/8.2.0/../../../../arm-none-eabi/lib/thumb/v6-m/nofp/libstdc++_nano.a(del_opv.o)
 .data          0x0000000000000000        0x0 /usr/lib/gcc/arm-none-eabi/8.2.0/../../../../arm-none-eabi/lib/thumb/v6-m/nofp/libstdc++_nano.a(del_opv.o)
 .bss           0x0000000000000000        0x0 /usr/lib/gcc/arm-none-eabi/8.2.0/../../../../arm-none-eabi/lib/thumb/v6-m/nofp/libstdc++_nano.a(del_opv.o)
 .text._ZdaPv   0x0000000000000000        0x8 /usr/lib/gcc/arm-none-eabi/8.2.0/../../../../arm-none-eabi/lib/thumb/v6-m/nofp/libstdc++_nano.a(del_opv.o)
 .debug_frame   0x0000000000000000       0x28 /usr/lib/gcc/arm-none-eabi/8.2.0/../../../../arm-none-eabi/lib/thumb/v6-m/nofp/libstdc++_nano.a(del_opv.o)
 .ARM.attributes
                0x0000000000000000       0x2c /usr/lib/gcc/arm-none-eabi/8.2.0/../../../../arm-none-eabi/lib/thumb/v6-m/nofp/libstdc++_nano.a(del_opv.o)
 .text          0x0000000000000000        0x0 /usr/lib/gcc/arm-none-eabi/8.2.0/../../../../arm-none-eabi/lib/thumb/v6-m/nofp/libstdc++_nano.a(del_op.o)
 .data          0x0000000000000000        0x0 /usr/lib/gcc/arm-none-eabi/8.2.0/../../../../arm-none-eabi/lib/thumb/v6-m/nofp/libstdc++_nano.a(del_op.o)
 .bss           0x0000000000000000        0x0 /usr/lib/gcc/arm-none-eabi/8.2.0/../../../../arm-none-eabi/lib/thumb/v6-m/nofp/libstdc++_nano.a(del_op.o)
 .text._ZdlPv   0x0000000000000000        0x8 /usr/lib/gcc/arm-none-eabi/8.2.0/../../../../arm-none-eabi/lib/thumb/v6-m/nofp/libstdc++_nano.a(del_op.o)
 .debug_frame   0x0000000000000000       0x28 /usr/lib/gcc/arm-none-eabi/8.2.0/../../../../arm-none-eabi/lib/thumb/v6-m/nofp/libstdc++_nano.a(del_op.o)
 .ARM.attributes
                0x0000000000000000       0x2c /usr/lib/gcc/arm-none-eabi/8.2.0/../../../../arm-none-eabi/lib/thumb/v6-m/nofp/libstdc++_nano.a(del_op.o)
 .text          0x0000000000000000        0x0 /usr/lib/gcc/arm-none-eabi/8.2.0/../../../../arm-none-eabi/lib/thumb/v6-m/nofp/libstdc++_nano.a(new_handler.o)
 .data          0x0000000000000000        0x0 /usr/lib/gcc/arm-none-eabi/8.2.0/../../../../arm-none-eabi/lib/thumb/v6-m/nofp/libstdc++_nano.a(new_handler.o)
 .bss           0x0000000000000000        0x0 /usr/lib/gcc/arm-none-eabi/8.2.0/../../../../arm-none-eabi/lib/thumb/v6-m/nofp/libstdc++_nano.a(new_handler.o)
 .text._ZSt15set_new_handlerPFvvE
                0x0000000000000000       0x10 /usr/lib/gcc/arm-none-eabi/8.2.0/../../../../arm-none-eabi/lib/thumb/v6-m/nofp/libstdc++_nano.a(new_handler.o)
 .text._ZSt15get_new_handlerv
                0x0000000000000000        0xc /usr/lib/gcc/arm-none-eabi/8.2.0/../../../../arm-none-eabi/lib/thumb/v6-m/nofp/libstdc++_nano.a(new_handler.o)
 .bss._ZN12_GLOBAL__N_113__new_handlerE
                0x0000000000000000        0x4 /usr/lib/gcc/arm-none-eabi/8.2.0/../../../../arm-none-eabi/lib/thumb/v6-m/nofp/libstdc++_nano.a(new_handler.o)
 .rodata._ZSt7nothrow
                0x0000000000000000        0x1 /usr/lib/gcc/arm-none-eabi/8.2.0/../../../../arm-none-eabi/lib/thumb/v6-m/nofp/libstdc++_nano.a(new_handler.o)
 .debug_frame   0x0000000000000000       0x30 /usr/lib/gcc/arm-none-eabi/8.2.0/../../../../arm-none-eabi/lib/thumb/v6-m/nofp/libstdc++_nano.a(new_handler.o)
 .ARM.attributes
                0x0000000000000000       0x2c /usr/lib/gcc/arm-none-eabi/8.2.0/../../../../arm-none-eabi/lib/thumb/v6-m/nofp/libstdc++_nano.a(new_handler.o)
 .text          0x0000000000000000        0x0 /usr/lib/gcc/arm-none-eabi/8.2.0/../../../../arm-none-eabi/lib/thumb/v6-m/nofp/libstdc++_nano.a(new_opv.o)
 .data          0x0000000000000000        0x0 /usr/lib/gcc/arm-none-eabi/8.2.0/../../../../arm-none-eabi/lib/thumb/v6-m/nofp/libstdc++_nano.a(new_opv.o)
 .bss           0x0000000000000000        0x0 /usr/lib/gcc/arm-none-eabi/8.2.0/../../../../arm-none-eabi/lib/thumb/v6-m/nofp/libstdc++_nano.a(new_opv.o)
 .text._Znaj    0x0000000000000000        0x8 /usr/lib/gcc/arm-none-eabi/8.2.0/../../../../arm-none-eabi/lib/thumb/v6-m/nofp/libstdc++_nano.a(new_opv.o)
 .debug_frame   0x0000000000000000       0x28 /usr/lib/gcc/arm-none-eabi/8.2.0/../../../../arm-none-eabi/lib/thumb/v6-m/nofp/libstdc++_nano.a(new_opv.o)
 .ARM.attributes
                0x0000000000000000       0x2c /usr/lib/gcc/arm-none-eabi/8.2.0/../../../../arm-none-eabi/lib/thumb/v6-m/nofp/libstdc++_nano.a(new_opv.o)
 .text          0x0000000000000000        0x0 /usr/lib/gcc/arm-none-eabi/8.2.0/../../../../arm-none-eabi/lib/thumb/v6-m/nofp/libc_nano.a(lib_a-abort.o)
 .data          0x0000000000000000        0x0 /usr/lib/gcc/arm-none-eabi/8.2.0/../../../../arm-none-eabi/lib/thumb/v6-m/nofp/libc_nano.a(lib_a-abort.o)
 .bss           0x0000000000000000        0x0 /usr/lib/gcc/arm-none-eabi/8.2.0/../../../../arm-none-eabi/lib/thumb/v6-m/nofp/libc_nano.a(lib_a-abort.o)
 .text.abort    0x0000000000000000        0xe /usr/lib/gcc/arm-none-eabi/8.2.0/../../../../arm-none-eabi/lib/thumb/v6-m/nofp/libc_nano.a(lib_a-abort.o)
 .debug_frame   0x0000000000000000       0x28 /usr/lib/gcc/arm-none-eabi/8.2.0/../../../../arm-none-eabi/lib/thumb/v6-m/nofp/libc_nano.a(lib_a-abort.o)
 .ARM.attributes
                0x0000000000000000       0x2c /usr/lib/gcc/arm-none-eabi/8.2.0/../../../../arm-none-eabi/lib/thumb/v6-m/nofp/libc_nano.a(lib_a-abort.o)
 .text          0x0000000000000000        0x0 /usr/lib/gcc/arm-none-eabi/8.2.0/../../../../arm-none-eabi/lib/thumb/v6-m/nofp/libc_nano.a(lib_a-atexit.o)
 .data          0x0000000000000000        0x0 /usr/lib/gcc/arm-none-eabi/8.2.0/../../../../arm-none-eabi/lib/thumb/v6-m/nofp/libc_nano.a(lib_a-atexit.o)
 .bss           0x0000000000000000        0x0 /usr/lib/gcc/arm-none-eabi/8.2.0/../../../../arm-none-eabi/lib/thumb/v6-m/nofp/libc_nano.a(lib_a-atexit.o)
 .text.atexit   0x0000000000000000       0x10 /usr/lib/gcc/arm-none-eabi/8.2.0/../../../../arm-none-eabi/lib/thumb/v6-m/nofp/libc_nano.a(lib_a-atexit.o)
 .debug_frame   0x0000000000000000       0x28 /usr/lib/gcc/arm-none-eabi/8.2.0/../../../../arm-none-eabi/lib/thumb/v6-m/nofp/libc_nano.a(lib_a-atexit.o)
 .ARM.attributes
                0x0000000000000000       0x2c /usr/lib/gcc/arm-none-eabi/8.2.0/../../../../arm-none-eabi/lib/thumb/v6-m/nofp/libc_nano.a(lib_a-atexit.o)
 .text          0x0000000000000000        0x0 /usr/lib/gcc/arm-none-eabi/8.2.0/../../../../arm-none-eabi/lib/thumb/v6-m/nofp/libc_nano.a(lib_a-cxa_atexit.o)
 .data          0x0000000000000000        0x0 /usr/lib/gcc/arm-none-eabi/8.2.0/../../../../arm-none-eabi/lib/thumb/v6-m/nofp/libc_nano.a(lib_a-cxa_atexit.o)
 .bss           0x0000000000000000        0x0 /usr/lib/gcc/arm-none-eabi/8.2.0/../../../../arm-none-eabi/lib/thumb/v6-m/nofp/libc_nano.a(lib_a-cxa_atexit.o)
 .rodata.__cxa_atexit_dummy
                0x0000000000000000        0x4 /usr/lib/gcc/arm-none-eabi/8.2.0/../../../../arm-none-eabi/lib/thumb/v6-m/nofp/libc_nano.a(lib_a-cxa_atexit.o)
 .text          0x0000000000000000        0x0 /usr/lib/gcc/arm-none-eabi/8.2.0/../../../../arm-none-eabi/lib/thumb/v6-m/nofp/libc_nano.a(lib_a-exit.o)
 .data          0x0000000000000000        0x0 /usr/lib/gcc/arm-none-eabi/8.2.0/../../../../arm-none-eabi/lib/thumb/v6-m/nofp/libc_nano.a(lib_a-exit.o)
 .bss           0x0000000000000000        0x0 /usr/lib/gcc/arm-none-eabi/8.2.0/../../../../arm-none-eabi/lib/thumb/v6-m/nofp/libc_nano.a(lib_a-exit.o)
 .text.exit     0x0000000000000000       0x2c /usr/lib/gcc/arm-none-eabi/8.2.0/../../../../arm-none-eabi/lib/thumb/v6-m/nofp/libc_nano.a(lib_a-exit.o)
 .debug_frame   0x0000000000000000       0x28 /usr/lib/gcc/arm-none-eabi/8.2.0/../../../../arm-none-eabi/lib/thumb/v6-m/nofp/libc_nano.a(lib_a-exit.o)
 .ARM.attributes
                0x0000000000000000       0x2c /usr/lib/gcc/arm-none-eabi/8.2.0/../../../../arm-none-eabi/lib/thumb/v6-m/nofp/libc_nano.a(lib_a-exit.o)
 .text          0x0000000000000000        0x0 /usr/lib/gcc/arm-none-eabi/8.2.0/../../../../arm-none-eabi/lib/thumb/v6-m/nofp/libc_nano.a(lib_a-fini.o)
 .data          0x0000000000000000        0x0 /usr/lib/gcc/arm-none-eabi/8.2.0/../../../../arm-none-eabi/lib/thumb/v6-m/nofp/libc_nano.a(lib_a-fini.o)
 .bss           0x0000000000000000        0x0 /usr/lib/gcc/arm-none-eabi/8.2.0/../../../../arm-none-eabi/lib/thumb/v6-m/nofp/libc_nano.a(lib_a-fini.o)
 .text.__libc_fini_array
                0x0000000000000000       0x28 /usr/lib/gcc/arm-none-eabi/8.2.0/../../../../arm-none-eabi/lib/thumb/v6-m/nofp/libc_nano.a(lib_a-fini.o)
 .debug_frame   0x0000000000000000       0x2c /usr/lib/gcc/arm-none-eabi/8.2.0/../../../../arm-none-eabi/lib/thumb/v6-m/nofp/libc_nano.a(lib_a-fini.o)
 .ARM.attributes
                0x0000000000000000       0x2c /usr/lib/gcc/arm-none-eabi/8.2.0/../../../../arm-none-eabi/lib/thumb/v6-m/nofp/libc_nano.a(lib_a-fini.o)
 .text          0x0000000000000000        0x0 /usr/lib/gcc/arm-none-eabi/8.2.0/../../../../arm-none-eabi/lib/thumb/v6-m/nofp/libc_nano.a(lib_a-impure.o)
 .data          0x0000000000000000        0x0 /usr/lib/gcc/arm-none-eabi/8.2.0/../../../../arm-none-eabi/lib/thumb/v6-m/nofp/libc_nano.a(lib_a-impure.o)
 .bss           0x0000000000000000        0x0 /usr/lib/gcc/arm-none-eabi/8.2.0/../../../../arm-none-eabi/lib/thumb/v6-m/nofp/libc_nano.a(lib_a-impure.o)
 .rodata._global_impure_ptr
                0x0000000000000000        0x4 /usr/lib/gcc/arm-none-eabi/8.2.0/../../../../arm-none-eabi/lib/thumb/v6-m/nofp/libc_nano.a(lib_a-impure.o)
 .text          0x0000000000000000        0x0 /usr/lib/gcc/arm-none-eabi/8.2.0/../../../../arm-none-eabi/lib/thumb/v6-m/nofp/libc_nano.a(lib_a-init.o)
 .data          0x0000000000000000        0x0 /usr/lib/gcc/arm-none-eabi/8.2.0/../../../../arm-none-eabi/lib/thumb/v6-m/nofp/libc_nano.a(lib_a-init.o)
 .bss           0x0000000000000000        0x0 /usr/lib/gcc/arm-none-eabi/8.2.0/../../../../arm-none-eabi/lib/thumb/v6-m/nofp/libc_nano.a(lib_a-init.o)
 .text          0x0000000000000000        0x0 /usr/lib/gcc/arm-none-eabi/8.2.0/../../../../arm-none-eabi/lib/thumb/v6-m/nofp/libc_nano.a(lib_a-malloc.o)
 .data          0x0000000000000000        0x0 /usr/lib/gcc/arm-none-eabi/8.2.0/../../../../arm-none-eabi/lib/thumb/v6-m/nofp/libc_nano.a(lib_a-malloc.o)
 .bss           0x0000000000000000        0x0 /usr/lib/gcc/arm-none-eabi/8.2.0/../../../../arm-none-eabi/lib/thumb/v6-m/nofp/libc_nano.a(lib_a-malloc.o)
 .text.free     0x0000000000000000       0x14 /usr/lib/gcc/arm-none-eabi/8.2.0/../../../../arm-none-eabi/lib/thumb/v6-m/nofp/libc_nano.a(lib_a-malloc.o)
 .text          0x0000000000000000        0x0 /usr/lib/gcc/arm-none-eabi/8.2.0/../../../../arm-none-eabi/lib/thumb/v6-m/nofp/libc_nano.a(lib_a-memset.o)
 .data          0x0000000000000000        0x0 /usr/lib/gcc/arm-none-eabi/8.2.0/../../../../arm-none-eabi/lib/thumb/v6-m/nofp/libc_nano.a(lib_a-memset.o)
 .bss           0x0000000000000000        0x0 /usr/lib/gcc/arm-none-eabi/8.2.0/../../../../arm-none-eabi/lib/thumb/v6-m/nofp/libc_nano.a(lib_a-memset.o)
 .text.memset   0x0000000000000000       0x10 /usr/lib/gcc/arm-none-eabi/8.2.0/../../../../arm-none-eabi/lib/thumb/v6-m/nofp/libc_nano.a(lib_a-memset.o)
 .debug_frame   0x0000000000000000       0x20 /usr/lib/gcc/arm-none-eabi/8.2.0/../../../../arm-none-eabi/lib/thumb/v6-m/nofp/libc_nano.a(lib_a-memset.o)
 .ARM.attributes
                0x0000000000000000       0x2c /usr/lib/gcc/arm-none-eabi/8.2.0/../../../../arm-none-eabi/lib/thumb/v6-m/nofp/libc_nano.a(lib_a-memset.o)
 .text          0x0000000000000000        0x0 /usr/lib/gcc/arm-none-eabi/8.2.0/../../../../arm-none-eabi/lib/thumb/v6-m/nofp/libc_nano.a(lib_a-nano-freer.o)
 .data          0x0000000000000000        0x0 /usr/lib/gcc/arm-none-eabi/8.2.0/../../../../arm-none-eabi/lib/thumb/v6-m/nofp/libc_nano.a(lib_a-nano-freer.o)
 .bss           0x0000000000000000        0x0 /usr/lib/gcc/arm-none-eabi/8.2.0/../../../../arm-none-eabi/lib/thumb/v6-m/nofp/libc_nano.a(lib_a-nano-freer.o)
 .text._free_r  0x0000000000000000       0x94 /usr/lib/gcc/arm-none-eabi/8.2.0/../../../../arm-none-eabi/lib/thumb/v6-m/nofp/libc_nano.a(lib_a-nano-freer.o)
 .debug_frame   0x0000000000000000       0x2c /usr/lib/gcc/arm-none-eabi/8.2.0/../../../../arm-none-eabi/lib/thumb/v6-m/nofp/libc_nano.a(lib_a-nano-freer.o)
 .ARM.attributes
                0x0000000000000000       0x2c /usr/lib/gcc/arm-none-eabi/8.2.0/../../../../arm-none-eabi/lib/thumb/v6-m/nofp/libc_nano.a(lib_a-nano-freer.o)
 .text          0x0000000000000000        0x0 /usr/lib/gcc/arm-none-eabi/8.2.0/../../../../arm-none-eabi/lib/thumb/v6-m/nofp/libc_nano.a(lib_a-nano-mallocr.o)
 .data          0x0000000000000000        0x0 /usr/lib/gcc/arm-none-eabi/8.2.0/../../../../arm-none-eabi/lib/thumb/v6-m/nofp/libc_nano.a(lib_a-nano-mallocr.o)
 .bss           0x0000000000000000        0x0 /usr/lib/gcc/arm-none-eabi/8.2.0/../../../../arm-none-eabi/lib/thumb/v6-m/nofp/libc_nano.a(lib_a-nano-mallocr.o)
 .text          0x0000000000000000        0x0 /usr/lib/gcc/arm-none-eabi/8.2.0/../../../../arm-none-eabi/lib/thumb/v6-m/nofp/libc_nano.a(lib_a-on_exit_args.o)
 .data          0x0000000000000000        0x0 /usr/lib/gcc/arm-none-eabi/8.2.0/../../../../arm-none-eabi/lib/thumb/v6-m/nofp/libc_nano.a(lib_a-on_exit_args.o)
 .bss           0x0000000000000000        0x0 /usr/lib/gcc/arm-none-eabi/8.2.0/../../../../arm-none-eabi/lib/thumb/v6-m/nofp/libc_nano.a(lib_a-on_exit_args.o)
 .text          0x0000000000000000        0x0 /usr/lib/gcc/arm-none-eabi/8.2.0/../../../../arm-none-eabi/lib/thumb/v6-m/nofp/libc_nano.a(lib_a-printf.o)
 .data          0x0000000000000000        0x0 /usr/lib/gcc/arm-none-eabi/8.2.0/../../../../arm-none-eabi/lib/thumb/v6-m/nofp/libc_nano.a(lib_a-printf.o)
 .bss           0x0000000000000000        0x0 /usr/lib/gcc/arm-none-eabi/8.2.0/../../../../arm-none-eabi/lib/thumb/v6-m/nofp/libc_nano.a(lib_a-printf.o)
 .text._printf_r
                0x0000000000000000       0x28 /usr/lib/gcc/arm-none-eabi/8.2.0/../../../../arm-none-eabi/lib/thumb/v6-m/nofp/libc_nano.a(lib_a-printf.o)
 .text.printf   0x0000000000000000       0x34 /usr/lib/gcc/arm-none-eabi/8.2.0/../../../../arm-none-eabi/lib/thumb/v6-m/nofp/libc_nano.a(lib_a-printf.o)
 .debug_frame   0x0000000000000000       0x50 /usr/lib/gcc/arm-none-eabi/8.2.0/../../../../arm-none-eabi/lib/thumb/v6-m/nofp/libc_nano.a(lib_a-printf.o)
 .ARM.attributes
                0x0000000000000000       0x2c /usr/lib/gcc/arm-none-eabi/8.2.0/../../../../arm-none-eabi/lib/thumb/v6-m/nofp/libc_nano.a(lib_a-printf.o)
 .text          0x0000000000000000        0x0 /usr/lib/gcc/arm-none-eabi/8.2.0/../../../../arm-none-eabi/lib/thumb/v6-m/nofp/libc_nano.a(lib_a-puts.o)
 .data          0x0000000000000000        0x0 /usr/lib/gcc/arm-none-eabi/8.2.0/../../../../arm-none-eabi/lib/thumb/v6-m/nofp/libc_nano.a(lib_a-puts.o)
 .bss           0x0000000000000000        0x0 /usr/lib/gcc/arm-none-eabi/8.2.0/../../../../arm-none-eabi/lib/thumb/v6-m/nofp/libc_nano.a(lib_a-puts.o)
 .text._puts_r  0x0000000000000000       0xc0 /usr/lib/gcc/arm-none-eabi/8.2.0/../../../../arm-none-eabi/lib/thumb/v6-m/nofp/libc_nano.a(lib_a-puts.o)
 .text.puts     0x0000000000000000       0x14 /usr/lib/gcc/arm-none-eabi/8.2.0/../../../../arm-none-eabi/lib/thumb/v6-m/nofp/libc_nano.a(lib_a-puts.o)
 .debug_frame   0x0000000000000000       0x44 /usr/lib/gcc/arm-none-eabi/8.2.0/../../../../arm-none-eabi/lib/thumb/v6-m/nofp/libc_nano.a(lib_a-puts.o)
 .ARM.attributes
                0x0000000000000000       0x2c /usr/lib/gcc/arm-none-eabi/8.2.0/../../../../arm-none-eabi/lib/thumb/v6-m/nofp/libc_nano.a(lib_a-puts.o)
 .text          0x0000000000000000        0x0 /usr/lib/gcc/arm-none-eabi/8.2.0/../../../../arm-none-eabi/lib/thumb/v6-m/nofp/libc_nano.a(lib_a-sbrkr.o)
 .data          0x0000000000000000        0x0 /usr/lib/gcc/arm-none-eabi/8.2.0/../../../../arm-none-eabi/lib/thumb/v6-m/nofp/libc_nano.a(lib_a-sbrkr.o)
 .bss           0x0000000000000000        0x0 /usr/lib/gcc/arm-none-eabi/8.2.0/../../../../arm-none-eabi/lib/thumb/v6-m/nofp/libc_nano.a(lib_a-sbrkr.o)
 .text          0x0000000000000000        0x0 /usr/lib/gcc/arm-none-eabi/8.2.0/../../../../arm-none-eabi/lib/thumb/v6-m/nofp/libc_nano.a(lib_a-signal.o)
 .data          0x0000000000000000        0x0 /usr/lib/gcc/arm-none-eabi/8.2.0/../../../../arm-none-eabi/lib/thumb/v6-m/nofp/libc_nano.a(lib_a-signal.o)
 .bss           0x0000000000000000        0x0 /usr/lib/gcc/arm-none-eabi/8.2.0/../../../../arm-none-eabi/lib/thumb/v6-m/nofp/libc_nano.a(lib_a-signal.o)
 .text._init_signal_r
                0x0000000000000000       0x2a /usr/lib/gcc/arm-none-eabi/8.2.0/../../../../arm-none-eabi/lib/thumb/v6-m/nofp/libc_nano.a(lib_a-signal.o)
 .text._signal_r
                0x0000000000000000       0x32 /usr/lib/gcc/arm-none-eabi/8.2.0/../../../../arm-none-eabi/lib/thumb/v6-m/nofp/libc_nano.a(lib_a-signal.o)
 .text._raise_r
                0x0000000000000000       0x54 /usr/lib/gcc/arm-none-eabi/8.2.0/../../../../arm-none-eabi/lib/thumb/v6-m/nofp/libc_nano.a(lib_a-signal.o)
 .text.__sigtramp_r
                0x0000000000000000       0x46 /usr/lib/gcc/arm-none-eabi/8.2.0/../../../../arm-none-eabi/lib/thumb/v6-m/nofp/libc_nano.a(lib_a-signal.o)
 .text.raise    0x0000000000000000       0x14 /usr/lib/gcc/arm-none-eabi/8.2.0/../../../../arm-none-eabi/lib/thumb/v6-m/nofp/libc_nano.a(lib_a-signal.o)
 .text.signal   0x0000000000000000       0x14 /usr/lib/gcc/arm-none-eabi/8.2.0/../../../../arm-none-eabi/lib/thumb/v6-m/nofp/libc_nano.a(lib_a-signal.o)
 .text._init_signal
                0x0000000000000000       0x10 /usr/lib/gcc/arm-none-eabi/8.2.0/../../../../arm-none-eabi/lib/thumb/v6-m/nofp/libc_nano.a(lib_a-signal.o)
 .text.__sigtramp
                0x0000000000000000       0x14 /usr/lib/gcc/arm-none-eabi/8.2.0/../../../../arm-none-eabi/lib/thumb/v6-m/nofp/libc_nano.a(lib_a-signal.o)
 .debug_frame   0x0000000000000000       0xe0 /usr/lib/gcc/arm-none-eabi/8.2.0/../../../../arm-none-eabi/lib/thumb/v6-m/nofp/libc_nano.a(lib_a-signal.o)
 .ARM.attributes
                0x0000000000000000       0x2c /usr/lib/gcc/arm-none-eabi/8.2.0/../../../../arm-none-eabi/lib/thumb/v6-m/nofp/libc_nano.a(lib_a-signal.o)
 .text          0x0000000000000000        0x0 /usr/lib/gcc/arm-none-eabi/8.2.0/../../../../arm-none-eabi/lib/thumb/v6-m/nofp/libc_nano.a(lib_a-signalr.o)
 .data          0x0000000000000000        0x0 /usr/lib/gcc/arm-none-eabi/8.2.0/../../../../arm-none-eabi/lib/thumb/v6-m/nofp/libc_nano.a(lib_a-signalr.o)
 .bss           0x0000000000000000        0x0 /usr/lib/gcc/arm-none-eabi/8.2.0/../../../../arm-none-eabi/lib/thumb/v6-m/nofp/libc_nano.a(lib_a-signalr.o)
 .text._kill_r  0x0000000000000000       0x24 /usr/lib/gcc/arm-none-eabi/8.2.0/../../../../arm-none-eabi/lib/thumb/v6-m/nofp/libc_nano.a(lib_a-signalr.o)
 .text._getpid_r
                0x0000000000000000        0x8 /usr/lib/gcc/arm-none-eabi/8.2.0/../../../../arm-none-eabi/lib/thumb/v6-m/nofp/libc_nano.a(lib_a-signalr.o)
 .debug_frame   0x0000000000000000       0x44 /usr/lib/gcc/arm-none-eabi/8.2.0/../../../../arm-none-eabi/lib/thumb/v6-m/nofp/libc_nano.a(lib_a-signalr.o)
 .ARM.attributes
                0x0000000000000000       0x2c /usr/lib/gcc/arm-none-eabi/8.2.0/../../../../arm-none-eabi/lib/thumb/v6-m/nofp/libc_nano.a(lib_a-signalr.o)
 .text          0x0000000000000000        0x0 /usr/lib/gcc/arm-none-eabi/8.2.0/../../../../arm-none-eabi/lib/thumb/v6-m/nofp/libc_nano.a(lib_a-wbuf.o)
 .data          0x0000000000000000        0x0 /usr/lib/gcc/arm-none-eabi/8.2.0/../../../../arm-none-eabi/lib/thumb/v6-m/nofp/libc_nano.a(lib_a-wbuf.o)
 .bss           0x0000000000000000        0x0 /usr/lib/gcc/arm-none-eabi/8.2.0/../../../../arm-none-eabi/lib/thumb/v6-m/nofp/libc_nano.a(lib_a-wbuf.o)
 .text.__swbuf_r
                0x0000000000000000       0xac /usr/lib/gcc/arm-none-eabi/8.2.0/../../../../arm-none-eabi/lib/thumb/v6-m/nofp/libc_nano.a(lib_a-wbuf.o)
 .text.__swbuf  0x0000000000000000       0x14 /usr/lib/gcc/arm-none-eabi/8.2.0/../../../../arm-none-eabi/lib/thumb/v6-m/nofp/libc_nano.a(lib_a-wbuf.o)
 .debug_frame   0x0000000000000000       0x48 /usr/lib/gcc/arm-none-eabi/8.2.0/../../../../arm-none-eabi/lib/thumb/v6-m/nofp/libc_nano.a(lib_a-wbuf.o)
 .ARM.attributes
                0x0000000000000000       0x2c /usr/lib/gcc/arm-none-eabi/8.2.0/../../../../arm-none-eabi/lib/thumb/v6-m/nofp/libc_nano.a(lib_a-wbuf.o)
 .text          0x0000000000000000        0x0 /usr/lib/gcc/arm-none-eabi/8.2.0/../../../../arm-none-eabi/lib/thumb/v6-m/nofp/libc_nano.a(lib_a-wsetup.o)
 .data          0x0000000000000000        0x0 /usr/lib/gcc/arm-none-eabi/8.2.0/../../../../arm-none-eabi/lib/thumb/v6-m/nofp/libc_nano.a(lib_a-wsetup.o)
 .bss           0x0000000000000000        0x0 /usr/lib/gcc/arm-none-eabi/8.2.0/../../../../arm-none-eabi/lib/thumb/v6-m/nofp/libc_nano.a(lib_a-wsetup.o)
 .text.__swsetup_r
                0x0000000000000000       0xec /usr/lib/gcc/arm-none-eabi/8.2.0/../../../../arm-none-eabi/lib/thumb/v6-m/nofp/libc_nano.a(lib_a-wsetup.o)
 .debug_frame   0x0000000000000000       0x2c /usr/lib/gcc/arm-none-eabi/8.2.0/../../../../arm-none-eabi/lib/thumb/v6-m/nofp/libc_nano.a(lib_a-wsetup.o)
 .ARM.attributes
                0x0000000000000000       0x2c /usr/lib/gcc/arm-none-eabi/8.2.0/../../../../arm-none-eabi/lib/thumb/v6-m/nofp/libc_nano.a(lib_a-wsetup.o)
 .text          0x0000000000000000        0x0 /usr/lib/gcc/arm-none-eabi/8.2.0/../../../../arm-none-eabi/lib/thumb/v6-m/nofp/libc_nano.a(lib_a-__atexit.o)
 .data          0x0000000000000000        0x0 /usr/lib/gcc/arm-none-eabi/8.2.0/../../../../arm-none-eabi/lib/thumb/v6-m/nofp/libc_nano.a(lib_a-__atexit.o)
 .bss           0x0000000000000000        0x0 /usr/lib/gcc/arm-none-eabi/8.2.0/../../../../arm-none-eabi/lib/thumb/v6-m/nofp/libc_nano.a(lib_a-__atexit.o)
 .data.__atexit_dummy
                0x0000000000000000        0x4 /usr/lib/gcc/arm-none-eabi/8.2.0/../../../../arm-none-eabi/lib/thumb/v6-m/nofp/libc_nano.a(lib_a-__atexit.o)
 .text          0x0000000000000000        0x0 /usr/lib/gcc/arm-none-eabi/8.2.0/../../../../arm-none-eabi/lib/thumb/v6-m/nofp/libc_nano.a(lib_a-__call_atexit.o)
 .data          0x0000000000000000        0x0 /usr/lib/gcc/arm-none-eabi/8.2.0/../../../../arm-none-eabi/lib/thumb/v6-m/nofp/libc_nano.a(lib_a-__call_atexit.o)
 .bss           0x0000000000000000        0x0 /usr/lib/gcc/arm-none-eabi/8.2.0/../../../../arm-none-eabi/lib/thumb/v6-m/nofp/libc_nano.a(lib_a-__call_atexit.o)
 .text.__call_exitprocs
                0x0000000000000000       0x9c /usr/lib/gcc/arm-none-eabi/8.2.0/../../../../arm-none-eabi/lib/thumb/v6-m/nofp/libc_nano.a(lib_a-__call_atexit.o)
 .text          0x0000000000000000        0x0 /usr/lib/gcc/arm-none-eabi/8.2.0/../../../../arm-none-eabi/lib/thumb/v6-m/nofp/libc_nano.a(lib_a-fflush.o)
 .data          0x0000000000000000        0x0 /usr/lib/gcc/arm-none-eabi/8.2.0/../../../../arm-none-eabi/lib/thumb/v6-m/nofp/libc_nano.a(lib_a-fflush.o)
 .bss           0x0000000000000000        0x0 /usr/lib/gcc/arm-none-eabi/8.2.0/../../../../arm-none-eabi/lib/thumb/v6-m/nofp/libc_nano.a(lib_a-fflush.o)
 .text.__sflush_r
                0x0000000000000000      0x114 /usr/lib/gcc/arm-none-eabi/8.2.0/../../../../arm-none-eabi/lib/thumb/v6-m/nofp/libc_nano.a(lib_a-fflush.o)
 .text._fflush_r
                0x0000000000000000       0x58 /usr/lib/gcc/arm-none-eabi/8.2.0/../../../../arm-none-eabi/lib/thumb/v6-m/nofp/libc_nano.a(lib_a-fflush.o)
 .text.fflush   0x0000000000000000       0x28 /usr/lib/gcc/arm-none-eabi/8.2.0/../../../../arm-none-eabi/lib/thumb/v6-m/nofp/libc_nano.a(lib_a-fflush.o)
 .debug_frame   0x0000000000000000       0x68 /usr/lib/gcc/arm-none-eabi/8.2.0/../../../../arm-none-eabi/lib/thumb/v6-m/nofp/libc_nano.a(lib_a-fflush.o)
 .ARM.attributes
                0x0000000000000000       0x2c /usr/lib/gcc/arm-none-eabi/8.2.0/../../../../arm-none-eabi/lib/thumb/v6-m/nofp/libc_nano.a(lib_a-fflush.o)
 .text          0x0000000000000000        0x0 /usr/lib/gcc/arm-none-eabi/8.2.0/../../../../arm-none-eabi/lib/thumb/v6-m/nofp/libc_nano.a(lib_a-findfp.o)
 .data          0x0000000000000000        0x0 /usr/lib/gcc/arm-none-eabi/8.2.0/../../../../arm-none-eabi/lib/thumb/v6-m/nofp/libc_nano.a(lib_a-findfp.o)
 .bss           0x0000000000000000        0x0 /usr/lib/gcc/arm-none-eabi/8.2.0/../../../../arm-none-eabi/lib/thumb/v6-m/nofp/libc_nano.a(lib_a-findfp.o)
 .text.__fp_lock
                0x0000000000000000        0x4 /usr/lib/gcc/arm-none-eabi/8.2.0/../../../../arm-none-eabi/lib/thumb/v6-m/nofp/libc_nano.a(lib_a-findfp.o)
 .text.std      0x0000000000000000       0x48 /usr/lib/gcc/arm-none-eabi/8.2.0/../../../../arm-none-eabi/lib/thumb/v6-m/nofp/libc_nano.a(lib_a-findfp.o)
 .text._cleanup_r
                0x0000000000000000       0x10 /usr/lib/gcc/arm-none-eabi/8.2.0/../../../../arm-none-eabi/lib/thumb/v6-m/nofp/libc_nano.a(lib_a-findfp.o)
 .text.__fp_unlock
                0x0000000000000000        0x4 /usr/lib/gcc/arm-none-eabi/8.2.0/../../../../arm-none-eabi/lib/thumb/v6-m/nofp/libc_nano.a(lib_a-findfp.o)
 .text.__sfmoreglue
                0x0000000000000000       0x2c /usr/lib/gcc/arm-none-eabi/8.2.0/../../../../arm-none-eabi/lib/thumb/v6-m/nofp/libc_nano.a(lib_a-findfp.o)
 .text._cleanup
                0x0000000000000000       0x10 /usr/lib/gcc/arm-none-eabi/8.2.0/../../../../arm-none-eabi/lib/thumb/v6-m/nofp/libc_nano.a(lib_a-findfp.o)
 .text.__sinit  0x0000000000000000       0x68 /usr/lib/gcc/arm-none-eabi/8.2.0/../../../../arm-none-eabi/lib/thumb/v6-m/nofp/libc_nano.a(lib_a-findfp.o)
 .text.__sfp    0x0000000000000000       0x7c /usr/lib/gcc/arm-none-eabi/8.2.0/../../../../arm-none-eabi/lib/thumb/v6-m/nofp/libc_nano.a(lib_a-findfp.o)
 .text.__sfp_lock_acquire
                0x0000000000000000        0x2 /usr/lib/gcc/arm-none-eabi/8.2.0/../../../../arm-none-eabi/lib/thumb/v6-m/nofp/libc_nano.a(lib_a-findfp.o)
 .text.__sfp_lock_release
                0x0000000000000000        0x2 /usr/lib/gcc/arm-none-eabi/8.2.0/../../../../arm-none-eabi/lib/thumb/v6-m/nofp/libc_nano.a(lib_a-findfp.o)
 .text.__sinit_lock_acquire
                0x0000000000000000        0x2 /usr/lib/gcc/arm-none-eabi/8.2.0/../../../../arm-none-eabi/lib/thumb/v6-m/nofp/libc_nano.a(lib_a-findfp.o)
 .text.__sinit_lock_release
                0x0000000000000000        0x2 /usr/lib/gcc/arm-none-eabi/8.2.0/../../../../arm-none-eabi/lib/thumb/v6-m/nofp/libc_nano.a(lib_a-findfp.o)
 .text.__fp_lock_all
                0x0000000000000000       0x18 /usr/lib/gcc/arm-none-eabi/8.2.0/../../../../arm-none-eabi/lib/thumb/v6-m/nofp/libc_nano.a(lib_a-findfp.o)
 .text.__fp_unlock_all
                0x0000000000000000       0x18 /usr/lib/gcc/arm-none-eabi/8.2.0/../../../../arm-none-eabi/lib/thumb/v6-m/nofp/libc_nano.a(lib_a-findfp.o)
 .text          0x0000000000000000        0x0 /usr/lib/gcc/arm-none-eabi/8.2.0/../../../../arm-none-eabi/lib/thumb/v6-m/nofp/libc_nano.a(lib_a-fwalk.o)
 .data          0x0000000000000000        0x0 /usr/lib/gcc/arm-none-eabi/8.2.0/../../../../arm-none-eabi/lib/thumb/v6-m/nofp/libc_nano.a(lib_a-fwalk.o)
 .bss           0x0000000000000000        0x0 /usr/lib/gcc/arm-none-eabi/8.2.0/../../../../arm-none-eabi/lib/thumb/v6-m/nofp/libc_nano.a(lib_a-fwalk.o)
 .text._fwalk   0x0000000000000000       0x38 /usr/lib/gcc/arm-none-eabi/8.2.0/../../../../arm-none-eabi/lib/thumb/v6-m/nofp/libc_nano.a(lib_a-fwalk.o)
 .text._fwalk_reent
                0x0000000000000000       0x42 /usr/lib/gcc/arm-none-eabi/8.2.0/../../../../arm-none-eabi/lib/thumb/v6-m/nofp/libc_nano.a(lib_a-fwalk.o)
 .debug_frame   0x0000000000000000       0x58 /usr/lib/gcc/arm-none-eabi/8.2.0/../../../../arm-none-eabi/lib/thumb/v6-m/nofp/libc_nano.a(lib_a-fwalk.o)
 .ARM.attributes
                0x0000000000000000       0x2c /usr/lib/gcc/arm-none-eabi/8.2.0/../../../../arm-none-eabi/lib/thumb/v6-m/nofp/libc_nano.a(lib_a-fwalk.o)
 .text          0x0000000000000000        0x0 /usr/lib/gcc/arm-none-eabi/8.2.0/../../../../arm-none-eabi/lib/thumb/v6-m/nofp/libc_nano.a(lib_a-makebuf.o)
 .data          0x0000000000000000        0x0 /usr/lib/gcc/arm-none-eabi/8.2.0/../../../../arm-none-eabi/lib/thumb/v6-m/nofp/libc_nano.a(lib_a-makebuf.o)
 .bss           0x0000000000000000        0x0 /usr/lib/gcc/arm-none-eabi/8.2.0/../../../../arm-none-eabi/lib/thumb/v6-m/nofp/libc_nano.a(lib_a-makebuf.o)
 .text.__swhatbuf_r
                0x0000000000000000       0x50 /usr/lib/gcc/arm-none-eabi/8.2.0/../../../../arm-none-eabi/lib/thumb/v6-m/nofp/libc_nano.a(lib_a-makebuf.o)
 .text.__smakebuf_r
                0x0000000000000000       0x88 /usr/lib/gcc/arm-none-eabi/8.2.0/../../../../arm-none-eabi/lib/thumb/v6-m/nofp/libc_nano.a(lib_a-makebuf.o)
 .debug_frame   0x0000000000000000       0x54 /usr/lib/gcc/arm-none-eabi/8.2.0/../../../../arm-none-eabi/lib/thumb/v6-m/nofp/libc_nano.a(lib_a-makebuf.o)
 .ARM.attributes
                0x0000000000000000       0x2c /usr/lib/gcc/arm-none-eabi/8.2.0/../../../../arm-none-eabi/lib/thumb/v6-m/nofp/libc_nano.a(lib_a-makebuf.o)
 .text          0x0000000000000000        0x0 /usr/lib/gcc/arm-none-eabi/8.2.0/../../../../arm-none-eabi/lib/thumb/v6-m/nofp/libc_nano.a(lib_a-mlock.o)
 .data          0x0000000000000000        0x0 /usr/lib/gcc/arm-none-eabi/8.2.0/../../../../arm-none-eabi/lib/thumb/v6-m/nofp/libc_nano.a(lib_a-mlock.o)
 .bss           0x0000000000000000        0x0 /usr/lib/gcc/arm-none-eabi/8.2.0/../../../../arm-none-eabi/lib/thumb/v6-m/nofp/libc_nano.a(lib_a-mlock.o)
 .text          0x0000000000000000        0x0 /usr/lib/gcc/arm-none-eabi/8.2.0/../../../../arm-none-eabi/lib/thumb/v6-m/nofp/libc_nano.a(lib_a-nano-vfprintf.o)
 .data          0x0000000000000000        0x0 /usr/lib/gcc/arm-none-eabi/8.2.0/../../../../arm-none-eabi/lib/thumb/v6-m/nofp/libc_nano.a(lib_a-nano-vfprintf.o)
 .bss           0x0000000000000000        0x0 /usr/lib/gcc/arm-none-eabi/8.2.0/../../../../arm-none-eabi/lib/thumb/v6-m/nofp/libc_nano.a(lib_a-nano-vfprintf.o)
 .text.__sfputc_r
                0x0000000000000000       0x2a /usr/lib/gcc/arm-none-eabi/8.2.0/../../../../arm-none-eabi/lib/thumb/v6-m/nofp/libc_nano.a(lib_a-nano-vfprintf.o)
 .text.__sfputs_r
                0x0000000000000000       0x24 /usr/lib/gcc/arm-none-eabi/8.2.0/../../../../arm-none-eabi/lib/thumb/v6-m/nofp/libc_nano.a(lib_a-nano-vfprintf.o)
 .text.__sprint_r
                0x0000000000000000       0x1c /usr/lib/gcc/arm-none-eabi/8.2.0/../../../../arm-none-eabi/lib/thumb/v6-m/nofp/libc_nano.a(lib_a-nano-vfprintf.o)
 .text._vfprintf_r
                0x0000000000000000      0x22c /usr/lib/gcc/arm-none-eabi/8.2.0/../../../../arm-none-eabi/lib/thumb/v6-m/nofp/libc_nano.a(lib_a-nano-vfprintf.o)
 .text.vfprintf
                0x0000000000000000       0x18 /usr/lib/gcc/arm-none-eabi/8.2.0/../../../../arm-none-eabi/lib/thumb/v6-m/nofp/libc_nano.a(lib_a-nano-vfprintf.o)
 .rodata._vfprintf_r.str1.1
                0x0000000000000000       0x11 /usr/lib/gcc/arm-none-eabi/8.2.0/../../../../arm-none-eabi/lib/thumb/v6-m/nofp/libc_nano.a(lib_a-nano-vfprintf.o)
 .debug_frame   0x0000000000000000       0x9c /usr/lib/gcc/arm-none-eabi/8.2.0/../../../../arm-none-eabi/lib/thumb/v6-m/nofp/libc_nano.a(lib_a-nano-vfprintf.o)
 .ARM.attributes
                0x0000000000000000       0x2c /usr/lib/gcc/arm-none-eabi/8.2.0/../../../../arm-none-eabi/lib/thumb/v6-m/nofp/libc_nano.a(lib_a-nano-vfprintf.o)
 .text          0x0000000000000000        0x0 /usr/lib/gcc/arm-none-eabi/8.2.0/../../../../arm-none-eabi/lib/thumb/v6-m/nofp/libc_nano.a(lib_a-reent.o)
 .data          0x0000000000000000        0x0 /usr/lib/gcc/arm-none-eabi/8.2.0/../../../../arm-none-eabi/lib/thumb/v6-m/nofp/libc_nano.a(lib_a-reent.o)
 .bss           0x0000000000000000        0x0 /usr/lib/gcc/arm-none-eabi/8.2.0/../../../../arm-none-eabi/lib/thumb/v6-m/nofp/libc_nano.a(lib_a-reent.o)
 .text.cleanup_glue
                0x0000000000000000       0x1a /usr/lib/gcc/arm-none-eabi/8.2.0/../../../../arm-none-eabi/lib/thumb/v6-m/nofp/libc_nano.a(lib_a-reent.o)
 .text._reclaim_reent
                0x0000000000000000       0xcc /usr/lib/gcc/arm-none-eabi/8.2.0/../../../../arm-none-eabi/lib/thumb/v6-m/nofp/libc_nano.a(lib_a-reent.o)
 .text          0x0000000000000000        0x0 /usr/lib/gcc/arm-none-eabi/8.2.0/../../../../arm-none-eabi/lib/thumb/v6-m/nofp/libc_nano.a(lib_a-stdio.o)
 .data          0x0000000000000000        0x0 /usr/lib/gcc/arm-none-eabi/8.2.0/../../../../arm-none-eabi/lib/thumb/v6-m/nofp/libc_nano.a(lib_a-stdio.o)
 .bss           0x0000000000000000        0x0 /usr/lib/gcc/arm-none-eabi/8.2.0/../../../../arm-none-eabi/lib/thumb/v6-m/nofp/libc_nano.a(lib_a-stdio.o)
 .text.__sread  0x0000000000000000       0x28 /usr/lib/gcc/arm-none-eabi/8.2.0/../../../../arm-none-eabi/lib/thumb/v6-m/nofp/libc_nano.a(lib_a-stdio.o)
 .text.__seofread
                0x0000000000000000        0x4 /usr/lib/gcc/arm-none-eabi/8.2.0/../../../../arm-none-eabi/lib/thumb/v6-m/nofp/libc_nano.a(lib_a-stdio.o)
 .text.__swrite
                0x0000000000000000       0x38 /usr/lib/gcc/arm-none-eabi/8.2.0/../../../../arm-none-eabi/lib/thumb/v6-m/nofp/libc_nano.a(lib_a-stdio.o)
 .text.__sseek  0x0000000000000000       0x2c /usr/lib/gcc/arm-none-eabi/8.2.0/../../../../arm-none-eabi/lib/thumb/v6-m/nofp/libc_nano.a(lib_a-stdio.o)
 .text.__sclose
                0x0000000000000000        0xc /usr/lib/gcc/arm-none-eabi/8.2.0/../../../../arm-none-eabi/lib/thumb/v6-m/nofp/libc_nano.a(lib_a-stdio.o)
 .debug_frame   0x0000000000000000       0x90 /usr/lib/gcc/arm-none-eabi/8.2.0/../../../../arm-none-eabi/lib/thumb/v6-m/nofp/libc_nano.a(lib_a-stdio.o)
 .ARM.attributes
                0x0000000000000000       0x2c /usr/lib/gcc/arm-none-eabi/8.2.0/../../../../arm-none-eabi/lib/thumb/v6-m/nofp/libc_nano.a(lib_a-stdio.o)
 .text          0x0000000000000000        0x0 /usr/lib/gcc/arm-none-eabi/8.2.0/../../../../arm-none-eabi/lib/thumb/v6-m/nofp/libc_nano.a(lib_a-writer.o)
 .data          0x0000000000000000        0x0 /usr/lib/gcc/arm-none-eabi/8.2.0/../../../../arm-none-eabi/lib/thumb/v6-m/nofp/libc_nano.a(lib_a-writer.o)
 .bss           0x0000000000000000        0x0 /usr/lib/gcc/arm-none-eabi/8.2.0/../../../../arm-none-eabi/lib/thumb/v6-m/nofp/libc_nano.a(lib_a-writer.o)
 .text._write_r
                0x0000000000000000       0x28 /usr/lib/gcc/arm-none-eabi/8.2.0/../../../../arm-none-eabi/lib/thumb/v6-m/nofp/libc_nano.a(lib_a-writer.o)
 .debug_frame   0x0000000000000000       0x2c /usr/lib/gcc/arm-none-eabi/8.2.0/../../../../arm-none-eabi/lib/thumb/v6-m/nofp/libc_nano.a(lib_a-writer.o)
 .ARM.attributes
                0x0000000000000000       0x2c /usr/lib/gcc/arm-none-eabi/8.2.0/../../../../arm-none-eabi/lib/thumb/v6-m/nofp/libc_nano.a(lib_a-writer.o)
 .text          0x0000000000000000        0x0 /usr/lib/gcc/arm-none-eabi/8.2.0/../../../../arm-none-eabi/lib/thumb/v6-m/nofp/libc_nano.a(lib_a-closer.o)
 .data          0x0000000000000000        0x0 /usr/lib/gcc/arm-none-eabi/8.2.0/../../../../arm-none-eabi/lib/thumb/v6-m/nofp/libc_nano.a(lib_a-closer.o)
 .bss           0x0000000000000000        0x0 /usr/lib/gcc/arm-none-eabi/8.2.0/../../../../arm-none-eabi/lib/thumb/v6-m/nofp/libc_nano.a(lib_a-closer.o)
 .text._close_r
                0x0000000000000000       0x24 /usr/lib/gcc/arm-none-eabi/8.2.0/../../../../arm-none-eabi/lib/thumb/v6-m/nofp/libc_nano.a(lib_a-closer.o)
 .debug_frame   0x0000000000000000       0x2c /usr/lib/gcc/arm-none-eabi/8.2.0/../../../../arm-none-eabi/lib/thumb/v6-m/nofp/libc_nano.a(lib_a-closer.o)
 .ARM.attributes
                0x0000000000000000       0x2c /usr/lib/gcc/arm-none-eabi/8.2.0/../../../../arm-none-eabi/lib/thumb/v6-m/nofp/libc_nano.a(lib_a-closer.o)
 .text          0x0000000000000000        0x0 /usr/lib/gcc/arm-none-eabi/8.2.0/../../../../arm-none-eabi/lib/thumb/v6-m/nofp/libc_nano.a(lib_a-fstatr.o)
 .data          0x0000000000000000        0x0 /usr/lib/gcc/arm-none-eabi/8.2.0/../../../../arm-none-eabi/lib/thumb/v6-m/nofp/libc_nano.a(lib_a-fstatr.o)
 .bss           0x0000000000000000        0x0 /usr/lib/gcc/arm-none-eabi/8.2.0/../../../../arm-none-eabi/lib/thumb/v6-m/nofp/libc_nano.a(lib_a-fstatr.o)
 .text._fstat_r
                0x0000000000000000       0x24 /usr/lib/gcc/arm-none-eabi/8.2.0/../../../../arm-none-eabi/lib/thumb/v6-m/nofp/libc_nano.a(lib_a-fstatr.o)
 .debug_frame   0x0000000000000000       0x2c /usr/lib/gcc/arm-none-eabi/8.2.0/../../../../arm-none-eabi/lib/thumb/v6-m/nofp/libc_nano.a(lib_a-fstatr.o)
 .ARM.attributes
                0x0000000000000000       0x2c /usr/lib/gcc/arm-none-eabi/8.2.0/../../../../arm-none-eabi/lib/thumb/v6-m/nofp/libc_nano.a(lib_a-fstatr.o)
 .text          0x0000000000000000        0x0 /usr/lib/gcc/arm-none-eabi/8.2.0/../../../../arm-none-eabi/lib/thumb/v6-m/nofp/libc_nano.a(lib_a-fvwrite.o)
 .data          0x0000000000000000        0x0 /usr/lib/gcc/arm-none-eabi/8.2.0/../../../../arm-none-eabi/lib/thumb/v6-m/nofp/libc_nano.a(lib_a-fvwrite.o)
 .bss           0x0000000000000000        0x0 /usr/lib/gcc/arm-none-eabi/8.2.0/../../../../arm-none-eabi/lib/thumb/v6-m/nofp/libc_nano.a(lib_a-fvwrite.o)
 .text.__sfvwrite_r
                0x0000000000000000      0x2c0 /usr/lib/gcc/arm-none-eabi/8.2.0/../../../../arm-none-eabi/lib/thumb/v6-m/nofp/libc_nano.a(lib_a-fvwrite.o)
 .debug_frame   0x0000000000000000       0x30 /usr/lib/gcc/arm-none-eabi/8.2.0/../../../../arm-none-eabi/lib/thumb/v6-m/nofp/libc_nano.a(lib_a-fvwrite.o)
 .ARM.attributes
                0x0000000000000000       0x2c /usr/lib/gcc/arm-none-eabi/8.2.0/../../../../arm-none-eabi/lib/thumb/v6-m/nofp/libc_nano.a(lib_a-fvwrite.o)
 .text          0x0000000000000000        0x0 /usr/lib/gcc/arm-none-eabi/8.2.0/../../../../arm-none-eabi/lib/thumb/v6-m/nofp/libc_nano.a(lib_a-isattyr.o)
 .data          0x0000000000000000        0x0 /usr/lib/gcc/arm-none-eabi/8.2.0/../../../../arm-none-eabi/lib/thumb/v6-m/nofp/libc_nano.a(lib_a-isattyr.o)
 .bss           0x0000000000000000        0x0 /usr/lib/gcc/arm-none-eabi/8.2.0/../../../../arm-none-eabi/lib/thumb/v6-m/nofp/libc_nano.a(lib_a-isattyr.o)
 .text._isatty_r
                0x0000000000000000       0x24 /usr/lib/gcc/arm-none-eabi/8.2.0/../../../../arm-none-eabi/lib/thumb/v6-m/nofp/libc_nano.a(lib_a-isattyr.o)
 .debug_frame   0x0000000000000000       0x2c /usr/lib/gcc/arm-none-eabi/8.2.0/../../../../arm-none-eabi/lib/thumb/v6-m/nofp/libc_nano.a(lib_a-isattyr.o)
 .ARM.attributes
                0x0000000000000000       0x2c /usr/lib/gcc/arm-none-eabi/8.2.0/../../../../arm-none-eabi/lib/thumb/v6-m/nofp/libc_nano.a(lib_a-isattyr.o)
 .text          0x0000000000000000        0x0 /usr/lib/gcc/arm-none-eabi/8.2.0/../../../../arm-none-eabi/lib/thumb/v6-m/nofp/libc_nano.a(lib_a-lseekr.o)
 .data          0x0000000000000000        0x0 /usr/lib/gcc/arm-none-eabi/8.2.0/../../../../arm-none-eabi/lib/thumb/v6-m/nofp/libc_nano.a(lib_a-lseekr.o)
 .bss           0x0000000000000000        0x0 /usr/lib/gcc/arm-none-eabi/8.2.0/../../../../arm-none-eabi/lib/thumb/v6-m/nofp/libc_nano.a(lib_a-lseekr.o)
 .text._lseek_r
                0x0000000000000000       0x28 /usr/lib/gcc/arm-none-eabi/8.2.0/../../../../arm-none-eabi/lib/thumb/v6-m/nofp/libc_nano.a(lib_a-lseekr.o)
 .debug_frame   0x0000000000000000       0x2c /usr/lib/gcc/arm-none-eabi/8.2.0/../../../../arm-none-eabi/lib/thumb/v6-m/nofp/libc_nano.a(lib_a-lseekr.o)
 .ARM.attributes
                0x0000000000000000       0x2c /usr/lib/gcc/arm-none-eabi/8.2.0/../../../../arm-none-eabi/lib/thumb/v6-m/nofp/libc_nano.a(lib_a-lseekr.o)
 .text          0x0000000000000000        0x0 /usr/lib/gcc/arm-none-eabi/8.2.0/../../../../arm-none-eabi/lib/thumb/v6-m/nofp/libc_nano.a(lib_a-memchr-stub.o)
 .data          0x0000000000000000        0x0 /usr/lib/gcc/arm-none-eabi/8.2.0/../../../../arm-none-eabi/lib/thumb/v6-m/nofp/libc_nano.a(lib_a-memchr-stub.o)
 .bss           0x0000000000000000        0x0 /usr/lib/gcc/arm-none-eabi/8.2.0/../../../../arm-none-eabi/lib/thumb/v6-m/nofp/libc_nano.a(lib_a-memchr-stub.o)
 .text.memchr   0x0000000000000000       0x16 /usr/lib/gcc/arm-none-eabi/8.2.0/../../../../arm-none-eabi/lib/thumb/v6-m/nofp/libc_nano.a(lib_a-memchr-stub.o)
 .debug_frame   0x0000000000000000       0x20 /usr/lib/gcc/arm-none-eabi/8.2.0/../../../../arm-none-eabi/lib/thumb/v6-m/nofp/libc_nano.a(lib_a-memchr-stub.o)
 .ARM.attributes
                0x0000000000000000       0x2c /usr/lib/gcc/arm-none-eabi/8.2.0/../../../../arm-none-eabi/lib/thumb/v6-m/nofp/libc_nano.a(lib_a-memchr-stub.o)
 .text          0x0000000000000000        0x0 /usr/lib/gcc/arm-none-eabi/8.2.0/../../../../arm-none-eabi/lib/thumb/v6-m/nofp/libc_nano.a(lib_a-memcpy-stub.o)
 .data          0x0000000000000000        0x0 /usr/lib/gcc/arm-none-eabi/8.2.0/../../../../arm-none-eabi/lib/thumb/v6-m/nofp/libc_nano.a(lib_a-memcpy-stub.o)
 .bss           0x0000000000000000        0x0 /usr/lib/gcc/arm-none-eabi/8.2.0/../../../../arm-none-eabi/lib/thumb/v6-m/nofp/libc_nano.a(lib_a-memcpy-stub.o)
 .text.memcpy   0x0000000000000000       0x12 /usr/lib/gcc/arm-none-eabi/8.2.0/../../../../arm-none-eabi/lib/thumb/v6-m/nofp/libc_nano.a(lib_a-memcpy-stub.o)
 .debug_frame   0x0000000000000000       0x28 /usr/lib/gcc/arm-none-eabi/8.2.0/../../../../arm-none-eabi/lib/thumb/v6-m/nofp/libc_nano.a(lib_a-memcpy-stub.o)
 .ARM.attributes
                0x0000000000000000       0x2c /usr/lib/gcc/arm-none-eabi/8.2.0/../../../../arm-none-eabi/lib/thumb/v6-m/nofp/libc_nano.a(lib_a-memcpy-stub.o)
 .text          0x0000000000000000        0x0 /usr/lib/gcc/arm-none-eabi/8.2.0/../../../../arm-none-eabi/lib/thumb/v6-m/nofp/libc_nano.a(lib_a-memmove.o)
 .data          0x0000000000000000        0x0 /usr/lib/gcc/arm-none-eabi/8.2.0/../../../../arm-none-eabi/lib/thumb/v6-m/nofp/libc_nano.a(lib_a-memmove.o)
 .bss           0x0000000000000000        0x0 /usr/lib/gcc/arm-none-eabi/8.2.0/../../../../arm-none-eabi/lib/thumb/v6-m/nofp/libc_nano.a(lib_a-memmove.o)
 .text.memmove  0x0000000000000000       0x26 /usr/lib/gcc/arm-none-eabi/8.2.0/../../../../arm-none-eabi/lib/thumb/v6-m/nofp/libc_nano.a(lib_a-memmove.o)
 .debug_frame   0x0000000000000000       0x28 /usr/lib/gcc/arm-none-eabi/8.2.0/../../../../arm-none-eabi/lib/thumb/v6-m/nofp/libc_nano.a(lib_a-memmove.o)
 .ARM.attributes
                0x0000000000000000       0x2c /usr/lib/gcc/arm-none-eabi/8.2.0/../../../../arm-none-eabi/lib/thumb/v6-m/nofp/libc_nano.a(lib_a-memmove.o)
 .text          0x0000000000000000        0x0 /usr/lib/gcc/arm-none-eabi/8.2.0/../../../../arm-none-eabi/lib/thumb/v6-m/nofp/libc_nano.a(lib_a-nano-reallocr.o)
 .data          0x0000000000000000        0x0 /usr/lib/gcc/arm-none-eabi/8.2.0/../../../../arm-none-eabi/lib/thumb/v6-m/nofp/libc_nano.a(lib_a-nano-reallocr.o)
 .bss           0x0000000000000000        0x0 /usr/lib/gcc/arm-none-eabi/8.2.0/../../../../arm-none-eabi/lib/thumb/v6-m/nofp/libc_nano.a(lib_a-nano-reallocr.o)
 .text._realloc_r
                0x0000000000000000       0x4c /usr/lib/gcc/arm-none-eabi/8.2.0/../../../../arm-none-eabi/lib/thumb/v6-m/nofp/libc_nano.a(lib_a-nano-reallocr.o)
 .debug_frame   0x0000000000000000       0x30 /usr/lib/gcc/arm-none-eabi/8.2.0/../../../../arm-none-eabi/lib/thumb/v6-m/nofp/libc_nano.a(lib_a-nano-reallocr.o)
 .ARM.attributes
                0x0000000000000000       0x2c /usr/lib/gcc/arm-none-eabi/8.2.0/../../../../arm-none-eabi/lib/thumb/v6-m/nofp/libc_nano.a(lib_a-nano-reallocr.o)
 .text          0x0000000000000000        0x0 /usr/lib/gcc/arm-none-eabi/8.2.0/../../../../arm-none-eabi/lib/thumb/v6-m/nofp/libc_nano.a(lib_a-nano-vfprintf_i.o)
 .data          0x0000000000000000        0x0 /usr/lib/gcc/arm-none-eabi/8.2.0/../../../../arm-none-eabi/lib/thumb/v6-m/nofp/libc_nano.a(lib_a-nano-vfprintf_i.o)
 .bss           0x0000000000000000        0x0 /usr/lib/gcc/arm-none-eabi/8.2.0/../../../../arm-none-eabi/lib/thumb/v6-m/nofp/libc_nano.a(lib_a-nano-vfprintf_i.o)
 .text._printf_common
                0x0000000000000000       0xda /usr/lib/gcc/arm-none-eabi/8.2.0/../../../../arm-none-eabi/lib/thumb/v6-m/nofp/libc_nano.a(lib_a-nano-vfprintf_i.o)
 .text._printf_i
                0x0000000000000000      0x214 /usr/lib/gcc/arm-none-eabi/8.2.0/../../../../arm-none-eabi/lib/thumb/v6-m/nofp/libc_nano.a(lib_a-nano-vfprintf_i.o)
 .rodata._printf_i.str1.1
                0x0000000000000000       0x22 /usr/lib/gcc/arm-none-eabi/8.2.0/../../../../arm-none-eabi/lib/thumb/v6-m/nofp/libc_nano.a(lib_a-nano-vfprintf_i.o)
 .debug_frame   0x0000000000000000       0x54 /usr/lib/gcc/arm-none-eabi/8.2.0/../../../../arm-none-eabi/lib/thumb/v6-m/nofp/libc_nano.a(lib_a-nano-vfprintf_i.o)
 .ARM.attributes
                0x0000000000000000       0x2c /usr/lib/gcc/arm-none-eabi/8.2.0/../../../../arm-none-eabi/lib/thumb/v6-m/nofp/libc_nano.a(lib_a-nano-vfprintf_i.o)
 .text          0x0000000000000000        0x0 /usr/lib/gcc/arm-none-eabi/8.2.0/../../../../arm-none-eabi/lib/thumb/v6-m/nofp/libc_nano.a(lib_a-readr.o)
 .data          0x0000000000000000        0x0 /usr/lib/gcc/arm-none-eabi/8.2.0/../../../../arm-none-eabi/lib/thumb/v6-m/nofp/libc_nano.a(lib_a-readr.o)
 .bss           0x0000000000000000        0x0 /usr/lib/gcc/arm-none-eabi/8.2.0/../../../../arm-none-eabi/lib/thumb/v6-m/nofp/libc_nano.a(lib_a-readr.o)
 .text._read_r  0x0000000000000000       0x28 /usr/lib/gcc/arm-none-eabi/8.2.0/../../../../arm-none-eabi/lib/thumb/v6-m/nofp/libc_nano.a(lib_a-readr.o)
 .debug_frame   0x0000000000000000       0x2c /usr/lib/gcc/arm-none-eabi/8.2.0/../../../../arm-none-eabi/lib/thumb/v6-m/nofp/libc_nano.a(lib_a-readr.o)
 .ARM.attributes
                0x0000000000000000       0x2c /usr/lib/gcc/arm-none-eabi/8.2.0/../../../../arm-none-eabi/lib/thumb/v6-m/nofp/libc_nano.a(lib_a-readr.o)
 .text          0x0000000000000000        0x0 /usr/lib/gcc/arm-none-eabi/8.2.0/../../../../arm-none-eabi/lib/thumb/v6-m/nofp/libc_nano.a(lib_a-nano-msizer.o)
 .data          0x0000000000000000        0x0 /usr/lib/gcc/arm-none-eabi/8.2.0/../../../../arm-none-eabi/lib/thumb/v6-m/nofp/libc_nano.a(lib_a-nano-msizer.o)
 .bss           0x0000000000000000        0x0 /usr/lib/gcc/arm-none-eabi/8.2.0/../../../../arm-none-eabi/lib/thumb/v6-m/nofp/libc_nano.a(lib_a-nano-msizer.o)
 .text._malloc_usable_size_r
                0x0000000000000000       0x10 /usr/lib/gcc/arm-none-eabi/8.2.0/../../../../arm-none-eabi/lib/thumb/v6-m/nofp/libc_nano.a(lib_a-nano-msizer.o)
 .debug_frame   0x0000000000000000       0x20 /usr/lib/gcc/arm-none-eabi/8.2.0/../../../../arm-none-eabi/lib/thumb/v6-m/nofp/libc_nano.a(lib_a-nano-msizer.o)
 .ARM.attributes
                0x0000000000000000       0x2c /usr/lib/gcc/arm-none-eabi/8.2.0/../../../../arm-none-eabi/lib/thumb/v6-m/nofp/libc_nano.a(lib_a-nano-msizer.o)
 .data          0x0000000000000000        0x0 /usr/lib/gcc/arm-none-eabi/8.2.0/thumb/v6-m/nofp/libgcc.a(_thumb1_case_uqi.o)
 .bss           0x0000000000000000        0x0 /usr/lib/gcc/arm-none-eabi/8.2.0/thumb/v6-m/nofp/libgcc.a(_thumb1_case_uqi.o)
 .data          0x0000000000000000        0x0 /usr/lib/gcc/arm-none-eabi/8.2.0/thumb/v6-m/nofp/libgcc.a(_udivsi3.o)
 .bss           0x0000000000000000        0x0 /usr/lib/gcc/arm-none-eabi/8.2.0/thumb/v6-m/nofp/libgcc.a(_udivsi3.o)
 .text          0x0000000000000000       0xa8 /usr/lib/gcc/arm-none-eabi/8.2.0/thumb/v6-m/nofp/libgcc.a(_divsi3.o)
 .data          0x0000000000000000        0x0 /usr/lib/gcc/arm-none-eabi/8.2.0/thumb/v6-m/nofp/libgcc.a(_divsi3.o)
 .bss           0x0000000000000000        0x0 /usr/lib/gcc/arm-none-eabi/8.2.0/thumb/v6-m/nofp/libgcc.a(_divsi3.o)
 .debug_frame   0x0000000000000000       0x20 /usr/lib/gcc/arm-none-eabi/8.2.0/thumb/v6-m/nofp/libgcc.a(_divsi3.o)
 .ARM.attributes
                0x0000000000000000       0x1e /usr/lib/gcc/arm-none-eabi/8.2.0/thumb/v6-m/nofp/libgcc.a(_divsi3.o)
 .data          0x0000000000000000        0x0 /usr/lib/gcc/arm-none-eabi/8.2.0/thumb/v6-m/nofp/libgcc.a(_dvmd_tls.o)
 .bss           0x0000000000000000        0x0 /usr/lib/gcc/arm-none-eabi/8.2.0/thumb/v6-m/nofp/libgcc.a(_dvmd_tls.o)
 .text          0x0000000000000000       0x7c /usr/lib/gcc/arm-none-eabi/8.2.0/thumb/v6-m/nofp/libgcc.a(_arm_cmpdf2.o)
 .data          0x0000000000000000        0x0 /usr/lib/gcc/arm-none-eabi/8.2.0/thumb/v6-m/nofp/libgcc.a(_arm_cmpdf2.o)
 .bss           0x0000000000000000        0x0 /usr/lib/gcc/arm-none-eabi/8.2.0/thumb/v6-m/nofp/libgcc.a(_arm_cmpdf2.o)
 .ARM.attributes
                0x0000000000000000       0x1e /usr/lib/gcc/arm-none-eabi/8.2.0/thumb/v6-m/nofp/libgcc.a(_arm_cmpdf2.o)
 .text          0x0000000000000000       0x74 /usr/lib/gcc/arm-none-eabi/8.2.0/thumb/v6-m/nofp/libgcc.a(_arm_cmpsf2.o)
 .data          0x0000000000000000        0x0 /usr/lib/gcc/arm-none-eabi/8.2.0/thumb/v6-m/nofp/libgcc.a(_arm_cmpsf2.o)
 .bss           0x0000000000000000        0x0 /usr/lib/gcc/arm-none-eabi/8.2.0/thumb/v6-m/nofp/libgcc.a(_arm_cmpsf2.o)
 .ARM.attributes
                0x0000000000000000       0x1e /usr/lib/gcc/arm-none-eabi/8.2.0/thumb/v6-m/nofp/libgcc.a(_arm_cmpsf2.o)
 .text          0x0000000000000000        0x0 /usr/lib/gcc/arm-none-eabi/8.2.0/thumb/v6-m/nofp/libgcc.a(_fixunssfsi.o)
 .data          0x0000000000000000        0x0 /usr/lib/gcc/arm-none-eabi/8.2.0/thumb/v6-m/nofp/libgcc.a(_fixunssfsi.o)
 .bss           0x0000000000000000        0x0 /usr/lib/gcc/arm-none-eabi/8.2.0/thumb/v6-m/nofp/libgcc.a(_fixunssfsi.o)
 .text.__fixunssfsi
                0x0000000000000000       0x2e /usr/lib/gcc/arm-none-eabi/8.2.0/thumb/v6-m/nofp/libgcc.a(_fixunssfsi.o)
 .debug_frame   0x0000000000000000       0x28 /usr/lib/gcc/arm-none-eabi/8.2.0/thumb/v6-m/nofp/libgcc.a(_fixunssfsi.o)
 .ARM.attributes
                0x0000000000000000       0x2c /usr/lib/gcc/arm-none-eabi/8.2.0/thumb/v6-m/nofp/libgcc.a(_fixunssfsi.o)
 .text          0x0000000000000000        0x0 /usr/lib/gcc/arm-none-eabi/8.2.0/thumb/v6-m/nofp/libgcc.a(addsf3.o)
 .data          0x0000000000000000        0x0 /usr/lib/gcc/arm-none-eabi/8.2.0/thumb/v6-m/nofp/libgcc.a(addsf3.o)
 .bss           0x0000000000000000        0x0 /usr/lib/gcc/arm-none-eabi/8.2.0/thumb/v6-m/nofp/libgcc.a(addsf3.o)
 .text.__aeabi_fadd
                0x0000000000000000      0x2a8 /usr/lib/gcc/arm-none-eabi/8.2.0/thumb/v6-m/nofp/libgcc.a(addsf3.o)
 .debug_frame   0x0000000000000000       0x34 /usr/lib/gcc/arm-none-eabi/8.2.0/thumb/v6-m/nofp/libgcc.a(addsf3.o)
 .ARM.attributes
                0x0000000000000000       0x2c /usr/lib/gcc/arm-none-eabi/8.2.0/thumb/v6-m/nofp/libgcc.a(addsf3.o)
 .text          0x0000000000000000        0x0 /usr/lib/gcc/arm-none-eabi/8.2.0/thumb/v6-m/nofp/libgcc.a(divsf3.o)
 .data          0x0000000000000000        0x0 /usr/lib/gcc/arm-none-eabi/8.2.0/thumb/v6-m/nofp/libgcc.a(divsf3.o)
 .bss           0x0000000000000000        0x0 /usr/lib/gcc/arm-none-eabi/8.2.0/thumb/v6-m/nofp/libgcc.a(divsf3.o)
 .text.__aeabi_fdiv
                0x0000000000000000      0x1bc /usr/lib/gcc/arm-none-eabi/8.2.0/thumb/v6-m/nofp/libgcc.a(divsf3.o)
 .debug_frame   0x0000000000000000       0x30 /usr/lib/gcc/arm-none-eabi/8.2.0/thumb/v6-m/nofp/libgcc.a(divsf3.o)
 .ARM.attributes
                0x0000000000000000       0x2c /usr/lib/gcc/arm-none-eabi/8.2.0/thumb/v6-m/nofp/libgcc.a(divsf3.o)
 .text          0x0000000000000000        0x0 /usr/lib/gcc/arm-none-eabi/8.2.0/thumb/v6-m/nofp/libgcc.a(eqsf2.o)
 .data          0x0000000000000000        0x0 /usr/lib/gcc/arm-none-eabi/8.2.0/thumb/v6-m/nofp/libgcc.a(eqsf2.o)
 .bss           0x0000000000000000        0x0 /usr/lib/gcc/arm-none-eabi/8.2.0/thumb/v6-m/nofp/libgcc.a(eqsf2.o)
 .text.__eqsf2  0x0000000000000000       0x48 /usr/lib/gcc/arm-none-eabi/8.2.0/thumb/v6-m/nofp/libgcc.a(eqsf2.o)
 .debug_frame   0x0000000000000000       0x2c /usr/lib/gcc/arm-none-eabi/8.2.0/thumb/v6-m/nofp/libgcc.a(eqsf2.o)
 .ARM.attributes
                0x0000000000000000       0x2c /usr/lib/gcc/arm-none-eabi/8.2.0/thumb/v6-m/nofp/libgcc.a(eqsf2.o)
 .text          0x0000000000000000        0x0 /usr/lib/gcc/arm-none-eabi/8.2.0/thumb/v6-m/nofp/libgcc.a(gesf2.o)
 .data          0x0000000000000000        0x0 /usr/lib/gcc/arm-none-eabi/8.2.0/thumb/v6-m/nofp/libgcc.a(gesf2.o)
 .bss           0x0000000000000000        0x0 /usr/lib/gcc/arm-none-eabi/8.2.0/thumb/v6-m/nofp/libgcc.a(gesf2.o)
 .text.__gesf2  0x0000000000000000       0x8e /usr/lib/gcc/arm-none-eabi/8.2.0/thumb/v6-m/nofp/libgcc.a(gesf2.o)
 .debug_frame   0x0000000000000000       0x2c /usr/lib/gcc/arm-none-eabi/8.2.0/thumb/v6-m/nofp/libgcc.a(gesf2.o)
 .ARM.attributes
                0x0000000000000000       0x2c /usr/lib/gcc/arm-none-eabi/8.2.0/thumb/v6-m/nofp/libgcc.a(gesf2.o)
 .text          0x0000000000000000        0x0 /usr/lib/gcc/arm-none-eabi/8.2.0/thumb/v6-m/nofp/libgcc.a(lesf2.o)
 .data          0x0000000000000000        0x0 /usr/lib/gcc/arm-none-eabi/8.2.0/thumb/v6-m/nofp/libgcc.a(lesf2.o)
 .bss           0x0000000000000000        0x0 /usr/lib/gcc/arm-none-eabi/8.2.0/thumb/v6-m/nofp/libgcc.a(lesf2.o)
 .text.__lesf2  0x0000000000000000       0x90 /usr/lib/gcc/arm-none-eabi/8.2.0/thumb/v6-m/nofp/libgcc.a(lesf2.o)
 .debug_frame   0x0000000000000000       0x2c /usr/lib/gcc/arm-none-eabi/8.2.0/thumb/v6-m/nofp/libgcc.a(lesf2.o)
 .ARM.attributes
                0x0000000000000000       0x2c /usr/lib/gcc/arm-none-eabi/8.2.0/thumb/v6-m/nofp/libgcc.a(lesf2.o)
 .text          0x0000000000000000        0x0 /usr/lib/gcc/arm-none-eabi/8.2.0/thumb/v6-m/nofp/libgcc.a(mulsf3.o)
 .data          0x0000000000000000        0x0 /usr/lib/gcc/arm-none-eabi/8.2.0/thumb/v6-m/nofp/libgcc.a(mulsf3.o)
 .bss           0x0000000000000000        0x0 /usr/lib/gcc/arm-none-eabi/8.2.0/thumb/v6-m/nofp/libgcc.a(mulsf3.o)
 .text.__aeabi_fmul
                0x0000000000000000      0x1d4 /usr/lib/gcc/arm-none-eabi/8.2.0/thumb/v6-m/nofp/libgcc.a(mulsf3.o)
 .debug_frame   0x0000000000000000       0x30 /usr/lib/gcc/arm-none-eabi/8.2.0/thumb/v6-m/nofp/libgcc.a(mulsf3.o)
 .ARM.attributes
                0x0000000000000000       0x2c /usr/lib/gcc/arm-none-eabi/8.2.0/thumb/v6-m/nofp/libgcc.a(mulsf3.o)
 .text          0x0000000000000000        0x0 /usr/lib/gcc/arm-none-eabi/8.2.0/thumb/v6-m/nofp/libgcc.a(subsf3.o)
 .data          0x0000000000000000        0x0 /usr/lib/gcc/arm-none-eabi/8.2.0/thumb/v6-m/nofp/libgcc.a(subsf3.o)
 .bss           0x0000000000000000        0x0 /usr/lib/gcc/arm-none-eabi/8.2.0/thumb/v6-m/nofp/libgcc.a(subsf3.o)
 .text.__aeabi_fsub
                0x0000000000000000      0x2dc /usr/lib/gcc/arm-none-eabi/8.2.0/thumb/v6-m/nofp/libgcc.a(subsf3.o)
 .debug_frame   0x0000000000000000       0x30 /usr/lib/gcc/arm-none-eabi/8.2.0/thumb/v6-m/nofp/libgcc.a(subsf3.o)
 .ARM.attributes
                0x0000000000000000       0x2c /usr/lib/gcc/arm-none-eabi/8.2.0/thumb/v6-m/nofp/libgcc.a(subsf3.o)
 .text          0x0000000000000000        0x0 /usr/lib/gcc/arm-none-eabi/8.2.0/thumb/v6-m/nofp/libgcc.a(unordsf2.o)
 .data          0x0000000000000000        0x0 /usr/lib/gcc/arm-none-eabi/8.2.0/thumb/v6-m/nofp/libgcc.a(unordsf2.o)
 .bss           0x0000000000000000        0x0 /usr/lib/gcc/arm-none-eabi/8.2.0/thumb/v6-m/nofp/libgcc.a(unordsf2.o)
 .text.__aeabi_fcmpun
                0x0000000000000000       0x28 /usr/lib/gcc/arm-none-eabi/8.2.0/thumb/v6-m/nofp/libgcc.a(unordsf2.o)
 .debug_frame   0x0000000000000000       0x20 /usr/lib/gcc/arm-none-eabi/8.2.0/thumb/v6-m/nofp/libgcc.a(unordsf2.o)
 .ARM.attributes
                0x0000000000000000       0x2c /usr/lib/gcc/arm-none-eabi/8.2.0/thumb/v6-m/nofp/libgcc.a(unordsf2.o)
 .text          0x0000000000000000        0x0 /usr/lib/gcc/arm-none-eabi/8.2.0/thumb/v6-m/nofp/libgcc.a(fixsfsi.o)
 .data          0x0000000000000000        0x0 /usr/lib/gcc/arm-none-eabi/8.2.0/thumb/v6-m/nofp/libgcc.a(fixsfsi.o)
 .bss           0x0000000000000000        0x0 /usr/lib/gcc/arm-none-eabi/8.2.0/thumb/v6-m/nofp/libgcc.a(fixsfsi.o)
 .text.__aeabi_f2iz
                0x0000000000000000       0x3c /usr/lib/gcc/arm-none-eabi/8.2.0/thumb/v6-m/nofp/libgcc.a(fixsfsi.o)
 .debug_frame   0x0000000000000000       0x20 /usr/lib/gcc/arm-none-eabi/8.2.0/thumb/v6-m/nofp/libgcc.a(fixsfsi.o)
 .ARM.attributes
                0x0000000000000000       0x2c /usr/lib/gcc/arm-none-eabi/8.2.0/thumb/v6-m/nofp/libgcc.a(fixsfsi.o)
 .text          0x0000000000000000        0x0 /usr/lib/gcc/arm-none-eabi/8.2.0/thumb/v6-m/nofp/libgcc.a(floatsisf.o)
 .data          0x0000000000000000        0x0 /usr/lib/gcc/arm-none-eabi/8.2.0/thumb/v6-m/nofp/libgcc.a(floatsisf.o)
 .bss           0x0000000000000000        0x0 /usr/lib/gcc/arm-none-eabi/8.2.0/thumb/v6-m/nofp/libgcc.a(floatsisf.o)
 .text.__aeabi_i2f
                0x0000000000000000       0x84 /usr/lib/gcc/arm-none-eabi/8.2.0/thumb/v6-m/nofp/libgcc.a(floatsisf.o)
 .debug_frame   0x0000000000000000       0x2c /usr/lib/gcc/arm-none-eabi/8.2.0/thumb/v6-m/nofp/libgcc.a(floatsisf.o)
 .ARM.attributes
                0x0000000000000000       0x2c /usr/lib/gcc/arm-none-eabi/8.2.0/thumb/v6-m/nofp/libgcc.a(floatsisf.o)
 .text          0x0000000000000000        0x0 /usr/lib/gcc/arm-none-eabi/8.2.0/thumb/v6-m/nofp/libgcc.a(floatunsisf.o)
 .data          0x0000000000000000        0x0 /usr/lib/gcc/arm-none-eabi/8.2.0/thumb/v6-m/nofp/libgcc.a(floatunsisf.o)
 .bss           0x0000000000000000        0x0 /usr/lib/gcc/arm-none-eabi/8.2.0/thumb/v6-m/nofp/libgcc.a(floatunsisf.o)
 .text.__aeabi_ui2f
                0x0000000000000000       0x74 /usr/lib/gcc/arm-none-eabi/8.2.0/thumb/v6-m/nofp/libgcc.a(floatunsisf.o)
 .debug_frame   0x0000000000000000       0x2c /usr/lib/gcc/arm-none-eabi/8.2.0/thumb/v6-m/nofp/libgcc.a(floatunsisf.o)
 .ARM.attributes
                0x0000000000000000       0x2c /usr/lib/gcc/arm-none-eabi/8.2.0/thumb/v6-m/nofp/libgcc.a(floatunsisf.o)
 .text          0x0000000000000000        0x0 /usr/lib/gcc/arm-none-eabi/8.2.0/thumb/v6-m/nofp/libgcc.a(adddf3.o)
 .data          0x0000000000000000        0x0 /usr/lib/gcc/arm-none-eabi/8.2.0/thumb/v6-m/nofp/libgcc.a(adddf3.o)
 .bss           0x0000000000000000        0x0 /usr/lib/gcc/arm-none-eabi/8.2.0/thumb/v6-m/nofp/libgcc.a(adddf3.o)
 .text.__aeabi_dadd
                0x0000000000000000      0x5b4 /usr/lib/gcc/arm-none-eabi/8.2.0/thumb/v6-m/nofp/libgcc.a(adddf3.o)
 .debug_frame   0x0000000000000000       0x34 /usr/lib/gcc/arm-none-eabi/8.2.0/thumb/v6-m/nofp/libgcc.a(adddf3.o)
 .ARM.attributes
                0x0000000000000000       0x2c /usr/lib/gcc/arm-none-eabi/8.2.0/thumb/v6-m/nofp/libgcc.a(adddf3.o)
 .text          0x0000000000000000        0x0 /usr/lib/gcc/arm-none-eabi/8.2.0/thumb/v6-m/nofp/libgcc.a(divdf3.o)
 .data          0x0000000000000000        0x0 /usr/lib/gcc/arm-none-eabi/8.2.0/thumb/v6-m/nofp/libgcc.a(divdf3.o)
 .bss           0x0000000000000000        0x0 /usr/lib/gcc/arm-none-eabi/8.2.0/thumb/v6-m/nofp/libgcc.a(divdf3.o)
 .text.__aeabi_ddiv
                0x0000000000000000      0x508 /usr/lib/gcc/arm-none-eabi/8.2.0/thumb/v6-m/nofp/libgcc.a(divdf3.o)
 .debug_frame   0x0000000000000000       0x30 /usr/lib/gcc/arm-none-eabi/8.2.0/thumb/v6-m/nofp/libgcc.a(divdf3.o)
 .ARM.attributes
                0x0000000000000000       0x2c /usr/lib/gcc/arm-none-eabi/8.2.0/thumb/v6-m/nofp/libgcc.a(divdf3.o)
 .text          0x0000000000000000        0x0 /usr/lib/gcc/arm-none-eabi/8.2.0/thumb/v6-m/nofp/libgcc.a(eqdf2.o)
 .data          0x0000000000000000        0x0 /usr/lib/gcc/arm-none-eabi/8.2.0/thumb/v6-m/nofp/libgcc.a(eqdf2.o)
 .bss           0x0000000000000000        0x0 /usr/lib/gcc/arm-none-eabi/8.2.0/thumb/v6-m/nofp/libgcc.a(eqdf2.o)
 .text.__eqdf2  0x0000000000000000       0x70 /usr/lib/gcc/arm-none-eabi/8.2.0/thumb/v6-m/nofp/libgcc.a(eqdf2.o)
 .debug_frame   0x0000000000000000       0x30 /usr/lib/gcc/arm-none-eabi/8.2.0/thumb/v6-m/nofp/libgcc.a(eqdf2.o)
 .ARM.attributes
                0x0000000000000000       0x2c /usr/lib/gcc/arm-none-eabi/8.2.0/thumb/v6-m/nofp/libgcc.a(eqdf2.o)
 .text          0x0000000000000000        0x0 /usr/lib/gcc/arm-none-eabi/8.2.0/thumb/v6-m/nofp/libgcc.a(gedf2.o)
 .data          0x0000000000000000        0x0 /usr/lib/gcc/arm-none-eabi/8.2.0/thumb/v6-m/nofp/libgcc.a(gedf2.o)
 .bss           0x0000000000000000        0x0 /usr/lib/gcc/arm-none-eabi/8.2.0/thumb/v6-m/nofp/libgcc.a(gedf2.o)
 .text.__gedf2  0x0000000000000000       0xb4 /usr/lib/gcc/arm-none-eabi/8.2.0/thumb/v6-m/nofp/libgcc.a(gedf2.o)
 .debug_frame   0x0000000000000000       0x30 /usr/lib/gcc/arm-none-eabi/8.2.0/thumb/v6-m/nofp/libgcc.a(gedf2.o)
 .ARM.attributes
                0x0000000000000000       0x2c /usr/lib/gcc/arm-none-eabi/8.2.0/thumb/v6-m/nofp/libgcc.a(gedf2.o)
 .text          0x0000000000000000        0x0 /usr/lib/gcc/arm-none-eabi/8.2.0/thumb/v6-m/nofp/libgcc.a(ledf2.o)
 .data          0x0000000000000000        0x0 /usr/lib/gcc/arm-none-eabi/8.2.0/thumb/v6-m/nofp/libgcc.a(ledf2.o)
 .bss           0x0000000000000000        0x0 /usr/lib/gcc/arm-none-eabi/8.2.0/thumb/v6-m/nofp/libgcc.a(ledf2.o)
 .text.__ledf2  0x0000000000000000       0xc4 /usr/lib/gcc/arm-none-eabi/8.2.0/thumb/v6-m/nofp/libgcc.a(ledf2.o)
 .debug_frame   0x0000000000000000       0x30 /usr/lib/gcc/arm-none-eabi/8.2.0/thumb/v6-m/nofp/libgcc.a(ledf2.o)
 .ARM.attributes
                0x0000000000000000       0x2c /usr/lib/gcc/arm-none-eabi/8.2.0/thumb/v6-m/nofp/libgcc.a(ledf2.o)
 .text          0x0000000000000000        0x0 /usr/lib/gcc/arm-none-eabi/8.2.0/thumb/v6-m/nofp/libgcc.a(unorddf2.o)
 .data          0x0000000000000000        0x0 /usr/lib/gcc/arm-none-eabi/8.2.0/thumb/v6-m/nofp/libgcc.a(unorddf2.o)
 .bss           0x0000000000000000        0x0 /usr/lib/gcc/arm-none-eabi/8.2.0/thumb/v6-m/nofp/libgcc.a(unorddf2.o)
 .text.__aeabi_dcmpun
                0x0000000000000000       0x34 /usr/lib/gcc/arm-none-eabi/8.2.0/thumb/v6-m/nofp/libgcc.a(unorddf2.o)
 .debug_frame   0x0000000000000000       0x2c /usr/lib/gcc/arm-none-eabi/8.2.0/thumb/v6-m/nofp/libgcc.a(unorddf2.o)
 .ARM.attributes
                0x0000000000000000       0x2c /usr/lib/gcc/arm-none-eabi/8.2.0/thumb/v6-m/nofp/libgcc.a(unorddf2.o)
 .text          0x0000000000000000       0x14 /usr/lib/gcc/arm-none-eabi/8.2.0/thumb/v6-m/nofp/libgcc.a(_thumb1_case_uhi.o)
 .data          0x0000000000000000        0x0 /usr/lib/gcc/arm-none-eabi/8.2.0/thumb/v6-m/nofp/libgcc.a(_thumb1_case_uhi.o)
 .bss           0x0000000000000000        0x0 /usr/lib/gcc/arm-none-eabi/8.2.0/thumb/v6-m/nofp/libgcc.a(_thumb1_case_uhi.o)
 .ARM.attributes
                0x0000000000000000       0x1e /usr/lib/gcc/arm-none-eabi/8.2.0/thumb/v6-m/nofp/libgcc.a(_thumb1_case_uhi.o)
 .text          0x0000000000000000       0x3c /usr/lib/gcc/arm-none-eabi/8.2.0/thumb/v6-m/nofp/libgcc.a(_clzsi2.o)
 .data          0x0000000000000000        0x0 /usr/lib/gcc/arm-none-eabi/8.2.0/thumb/v6-m/nofp/libgcc.a(_clzsi2.o)
 .bss           0x0000000000000000        0x0 /usr/lib/gcc/arm-none-eabi/8.2.0/thumb/v6-m/nofp/libgcc.a(_clzsi2.o)
 .ARM.attributes
                0x0000000000000000       0x1e /usr/lib/gcc/arm-none-eabi/8.2.0/thumb/v6-m/nofp/libgcc.a(_clzsi2.o)
 .text          0x0000000000000000        0x0 /usr/lib/gcc/arm-none-eabi/8.2.0/../../../../arm-none-eabi/lib/thumb/v6-m/nofp/libnosys.a(close.o)
 .data          0x0000000000000000        0x0 /usr/lib/gcc/arm-none-eabi/8.2.0/../../../../arm-none-eabi/lib/thumb/v6-m/nofp/libnosys.a(close.o)
 .bss           0x0000000000000000        0x0 /usr/lib/gcc/arm-none-eabi/8.2.0/../../../../arm-none-eabi/lib/thumb/v6-m/nofp/libnosys.a(close.o)
 .stab          0x0000000000000000       0x24 /usr/lib/gcc/arm-none-eabi/8.2.0/../../../../arm-none-eabi/lib/thumb/v6-m/nofp/libnosys.a(close.o)
 .text._close   0x0000000000000000       0x10 /usr/lib/gcc/arm-none-eabi/8.2.0/../../../../arm-none-eabi/lib/thumb/v6-m/nofp/libnosys.a(close.o)
 .debug_frame   0x0000000000000000       0x20 /usr/lib/gcc/arm-none-eabi/8.2.0/../../../../arm-none-eabi/lib/thumb/v6-m/nofp/libnosys.a(close.o)
 .ARM.attributes
                0x0000000000000000       0x2c /usr/lib/gcc/arm-none-eabi/8.2.0/../../../../arm-none-eabi/lib/thumb/v6-m/nofp/libnosys.a(close.o)
 .text          0x0000000000000000        0x0 /usr/lib/gcc/arm-none-eabi/8.2.0/../../../../arm-none-eabi/lib/thumb/v6-m/nofp/libnosys.a(fstat.o)
 .data          0x0000000000000000        0x0 /usr/lib/gcc/arm-none-eabi/8.2.0/../../../../arm-none-eabi/lib/thumb/v6-m/nofp/libnosys.a(fstat.o)
 .bss           0x0000000000000000        0x0 /usr/lib/gcc/arm-none-eabi/8.2.0/../../../../arm-none-eabi/lib/thumb/v6-m/nofp/libnosys.a(fstat.o)
 .stab          0x0000000000000000       0x18 /usr/lib/gcc/arm-none-eabi/8.2.0/../../../../arm-none-eabi/lib/thumb/v6-m/nofp/libnosys.a(fstat.o)
                                         0x24 (size before relaxing)
 .text._fstat   0x0000000000000000       0x10 /usr/lib/gcc/arm-none-eabi/8.2.0/../../../../arm-none-eabi/lib/thumb/v6-m/nofp/libnosys.a(fstat.o)
 .debug_frame   0x0000000000000000       0x20 /usr/lib/gcc/arm-none-eabi/8.2.0/../../../../arm-none-eabi/lib/thumb/v6-m/nofp/libnosys.a(fstat.o)
 .ARM.attributes
                0x0000000000000000       0x2c /usr/lib/gcc/arm-none-eabi/8.2.0/../../../../arm-none-eabi/lib/thumb/v6-m/nofp/libnosys.a(fstat.o)
 .text          0x0000000000000000        0x0 /usr/lib/gcc/arm-none-eabi/8.2.0/../../../../arm-none-eabi/lib/thumb/v6-m/nofp/libnosys.a(getpid.o)
 .data          0x0000000000000000        0x0 /usr/lib/gcc/arm-none-eabi/8.2.0/../../../../arm-none-eabi/lib/thumb/v6-m/nofp/libnosys.a(getpid.o)
 .bss           0x0000000000000000        0x0 /usr/lib/gcc/arm-none-eabi/8.2.0/../../../../arm-none-eabi/lib/thumb/v6-m/nofp/libnosys.a(getpid.o)
 .stab          0x0000000000000000       0x18 /usr/lib/gcc/arm-none-eabi/8.2.0/../../../../arm-none-eabi/lib/thumb/v6-m/nofp/libnosys.a(getpid.o)
                                         0x24 (size before relaxing)
 .text._getpid  0x0000000000000000       0x10 /usr/lib/gcc/arm-none-eabi/8.2.0/../../../../arm-none-eabi/lib/thumb/v6-m/nofp/libnosys.a(getpid.o)
 .debug_frame   0x0000000000000000       0x20 /usr/lib/gcc/arm-none-eabi/8.2.0/../../../../arm-none-eabi/lib/thumb/v6-m/nofp/libnosys.a(getpid.o)
 .ARM.attributes
                0x0000000000000000       0x2c /usr/lib/gcc/arm-none-eabi/8.2.0/../../../../arm-none-eabi/lib/thumb/v6-m/nofp/libnosys.a(getpid.o)
 .text          0x0000000000000000        0x0 /usr/lib/gcc/arm-none-eabi/8.2.0/../../../../arm-none-eabi/lib/thumb/v6-m/nofp/libnosys.a(isatty.o)
 .data          0x0000000000000000        0x0 /usr/lib/gcc/arm-none-eabi/8.2.0/../../../../arm-none-eabi/lib/thumb/v6-m/nofp/libnosys.a(isatty.o)
 .bss           0x0000000000000000        0x0 /usr/lib/gcc/arm-none-eabi/8.2.0/../../../../arm-none-eabi/lib/thumb/v6-m/nofp/libnosys.a(isatty.o)
 .stab          0x0000000000000000       0x18 /usr/lib/gcc/arm-none-eabi/8.2.0/../../../../arm-none-eabi/lib/thumb/v6-m/nofp/libnosys.a(isatty.o)
                                         0x24 (size before relaxing)
 .text._isatty  0x0000000000000000       0x10 /usr/lib/gcc/arm-none-eabi/8.2.0/../../../../arm-none-eabi/lib/thumb/v6-m/nofp/libnosys.a(isatty.o)
 .debug_frame   0x0000000000000000       0x20 /usr/lib/gcc/arm-none-eabi/8.2.0/../../../../arm-none-eabi/lib/thumb/v6-m/nofp/libnosys.a(isatty.o)
 .ARM.attributes
                0x0000000000000000       0x2c /usr/lib/gcc/arm-none-eabi/8.2.0/../../../../arm-none-eabi/lib/thumb/v6-m/nofp/libnosys.a(isatty.o)
 .text          0x0000000000000000        0x0 /usr/lib/gcc/arm-none-eabi/8.2.0/../../../../arm-none-eabi/lib/thumb/v6-m/nofp/libnosys.a(kill.o)
 .data          0x0000000000000000        0x0 /usr/lib/gcc/arm-none-eabi/8.2.0/../../../../arm-none-eabi/lib/thumb/v6-m/nofp/libnosys.a(kill.o)
 .bss           0x0000000000000000        0x0 /usr/lib/gcc/arm-none-eabi/8.2.0/../../../../arm-none-eabi/lib/thumb/v6-m/nofp/libnosys.a(kill.o)
 .stab          0x0000000000000000       0x18 /usr/lib/gcc/arm-none-eabi/8.2.0/../../../../arm-none-eabi/lib/thumb/v6-m/nofp/libnosys.a(kill.o)
                                         0x24 (size before relaxing)
 .text._kill    0x0000000000000000       0x10 /usr/lib/gcc/arm-none-eabi/8.2.0/../../../../arm-none-eabi/lib/thumb/v6-m/nofp/libnosys.a(kill.o)
 .debug_frame   0x0000000000000000       0x20 /usr/lib/gcc/arm-none-eabi/8.2.0/../../../../arm-none-eabi/lib/thumb/v6-m/nofp/libnosys.a(kill.o)
 .ARM.attributes
                0x0000000000000000       0x2c /usr/lib/gcc/arm-none-eabi/8.2.0/../../../../arm-none-eabi/lib/thumb/v6-m/nofp/libnosys.a(kill.o)
 .text          0x0000000000000000        0x0 /usr/lib/gcc/arm-none-eabi/8.2.0/../../../../arm-none-eabi/lib/thumb/v6-m/nofp/libnosys.a(lseek.o)
 .data          0x0000000000000000        0x0 /usr/lib/gcc/arm-none-eabi/8.2.0/../../../../arm-none-eabi/lib/thumb/v6-m/nofp/libnosys.a(lseek.o)
 .bss           0x0000000000000000        0x0 /usr/lib/gcc/arm-none-eabi/8.2.0/../../../../arm-none-eabi/lib/thumb/v6-m/nofp/libnosys.a(lseek.o)
 .stab          0x0000000000000000       0x18 /usr/lib/gcc/arm-none-eabi/8.2.0/../../../../arm-none-eabi/lib/thumb/v6-m/nofp/libnosys.a(lseek.o)
                                         0x24 (size before relaxing)
 .text._lseek   0x0000000000000000       0x10 /usr/lib/gcc/arm-none-eabi/8.2.0/../../../../arm-none-eabi/lib/thumb/v6-m/nofp/libnosys.a(lseek.o)
 .debug_frame   0x0000000000000000       0x20 /usr/lib/gcc/arm-none-eabi/8.2.0/../../../../arm-none-eabi/lib/thumb/v6-m/nofp/libnosys.a(lseek.o)
 .ARM.attributes
                0x0000000000000000       0x2c /usr/lib/gcc/arm-none-eabi/8.2.0/../../../../arm-none-eabi/lib/thumb/v6-m/nofp/libnosys.a(lseek.o)
 .text          0x0000000000000000        0x0 /usr/lib/gcc/arm-none-eabi/8.2.0/../../../../arm-none-eabi/lib/thumb/v6-m/nofp/libnosys.a(read.o)
 .data          0x0000000000000000        0x0 /usr/lib/gcc/arm-none-eabi/8.2.0/../../../../arm-none-eabi/lib/thumb/v6-m/nofp/libnosys.a(read.o)
 .bss           0x0000000000000000        0x0 /usr/lib/gcc/arm-none-eabi/8.2.0/../../../../arm-none-eabi/lib/thumb/v6-m/nofp/libnosys.a(read.o)
 .stab          0x0000000000000000       0x18 /usr/lib/gcc/arm-none-eabi/8.2.0/../../../../arm-none-eabi/lib/thumb/v6-m/nofp/libnosys.a(read.o)
                                         0x24 (size before relaxing)
 .text._read    0x0000000000000000       0x10 /usr/lib/gcc/arm-none-eabi/8.2.0/../../../../arm-none-eabi/lib/thumb/v6-m/nofp/libnosys.a(read.o)
 .debug_frame   0x0000000000000000       0x20 /usr/lib/gcc/arm-none-eabi/8.2.0/../../../../arm-none-eabi/lib/thumb/v6-m/nofp/libnosys.a(read.o)
 .ARM.attributes
                0x0000000000000000       0x2c /usr/lib/gcc/arm-none-eabi/8.2.0/../../../../arm-none-eabi/lib/thumb/v6-m/nofp/libnosys.a(read.o)
 .text          0x0000000000000000        0x0 /usr/lib/gcc/arm-none-eabi/8.2.0/../../../../arm-none-eabi/lib/thumb/v6-m/nofp/libnosys.a(sbrk.o)
 .data          0x0000000000000000        0x0 /usr/lib/gcc/arm-none-eabi/8.2.0/../../../../arm-none-eabi/lib/thumb/v6-m/nofp/libnosys.a(sbrk.o)
 .bss           0x0000000000000000        0x0 /usr/lib/gcc/arm-none-eabi/8.2.0/../../../../arm-none-eabi/lib/thumb/v6-m/nofp/libnosys.a(sbrk.o)
 .text          0x0000000000000000        0x0 /usr/lib/gcc/arm-none-eabi/8.2.0/../../../../arm-none-eabi/lib/thumb/v6-m/nofp/libnosys.a(write.o)
 .data          0x0000000000000000        0x0 /usr/lib/gcc/arm-none-eabi/8.2.0/../../../../arm-none-eabi/lib/thumb/v6-m/nofp/libnosys.a(write.o)
 .bss           0x0000000000000000        0x0 /usr/lib/gcc/arm-none-eabi/8.2.0/../../../../arm-none-eabi/lib/thumb/v6-m/nofp/libnosys.a(write.o)
 .stab          0x0000000000000000       0x18 /usr/lib/gcc/arm-none-eabi/8.2.0/../../../../arm-none-eabi/lib/thumb/v6-m/nofp/libnosys.a(write.o)
                                         0x24 (size before relaxing)
 .text._write   0x0000000000000000       0x10 /usr/lib/gcc/arm-none-eabi/8.2.0/../../../../arm-none-eabi/lib/thumb/v6-m/nofp/libnosys.a(write.o)
 .debug_frame   0x0000000000000000       0x20 /usr/lib/gcc/arm-none-eabi/8.2.0/../../../../arm-none-eabi/lib/thumb/v6-m/nofp/libnosys.a(write.o)
 .ARM.attributes
                0x0000000000000000       0x2c /usr/lib/gcc/arm-none-eabi/8.2.0/../../../../arm-none-eabi/lib/thumb/v6-m/nofp/libnosys.a(write.o)
 .text          0x0000000000000000        0x0 /usr/lib/gcc/arm-none-eabi/8.2.0/../../../../arm-none-eabi/lib/thumb/v6-m/nofp/libnosys.a(_exit.o)
 .data          0x0000000000000000        0x0 /usr/lib/gcc/arm-none-eabi/8.2.0/../../../../arm-none-eabi/lib/thumb/v6-m/nofp/libnosys.a(_exit.o)
 .bss           0x0000000000000000        0x0 /usr/lib/gcc/arm-none-eabi/8.2.0/../../../../arm-none-eabi/lib/thumb/v6-m/nofp/libnosys.a(_exit.o)
 .text._exit    0x0000000000000000        0x4 /usr/lib/gcc/arm-none-eabi/8.2.0/../../../../arm-none-eabi/lib/thumb/v6-m/nofp/libnosys.a(_exit.o)
 .debug_frame   0x0000000000000000       0x20 /usr/lib/gcc/arm-none-eabi/8.2.0/../../../../arm-none-eabi/lib/thumb/v6-m/nofp/libnosys.a(_exit.o)
 .ARM.attributes
                0x0000000000000000       0x2c /usr/lib/gcc/arm-none-eabi/8.2.0/../../../../arm-none-eabi/lib/thumb/v6-m/nofp/libnosys.a(_exit.o)
 .text          0x0000000000000000        0x0 /usr/lib/gcc/arm-none-eabi/8.2.0/thumb/v6-m/nofp/crtend.o
 .data          0x0000000000000000        0x0 /usr/lib/gcc/arm-none-eabi/8.2.0/thumb/v6-m/nofp/crtend.o
 .bss           0x0000000000000000        0x0 /usr/lib/gcc/arm-none-eabi/8.2.0/thumb/v6-m/nofp/crtend.o
 .eh_frame      0x0000000000000000        0x4 /usr/lib/gcc/arm-none-eabi/8.2.0/thumb/v6-m/nofp/crtend.o
 .ARM.attributes
                0x0000000000000000       0x2c /usr/lib/gcc/arm-none-eabi/8.2.0/thumb/v6-m/nofp/crtend.o
 .text          0x0000000000000000        0x0 /usr/lib/gcc/arm-none-eabi/8.2.0/thumb/v6-m/nofp/crtn.o
 .data          0x0000000000000000        0x0 /usr/lib/gcc/arm-none-eabi/8.2.0/thumb/v6-m/nofp/crtn.o
 .bss           0x0000000000000000        0x0 /usr/lib/gcc/arm-none-eabi/8.2.0/thumb/v6-m/nofp/crtn.o

Memory Configuration

Name             Origin             Length             Attributes
FLASH            0x0000000008000000 0x0000000000004000 xr
RAM              0x0000000020000000 0x0000000000001000 xrw
MEMORY_B1        0x0000000060000000 0x0000000000000000 xr
*default*        0x0000000000000000 0xffffffffffffffff

Linker script and memory map

LOAD /usr/lib/gcc/arm-none-eabi/8.2.0/thumb/v6-m/nofp/crti.o
LOAD /usr/lib/gcc/arm-none-eabi/8.2.0/thumb/v6-m/nofp/crtbegin.o
LOAD /usr/lib/gcc/arm-none-eabi/8.2.0/../../../../arm-none-eabi/lib/thumb/v6-m/nofp/crt0.o
LOAD build/obj/./src/LowPassFilter.opp
LOAD build/obj/./src/timer.opp
LOAD build/obj/./src/adc.opp
LOAD build/obj/./src/printing.opp
LOAD build/obj/./src/crc.opp
LOAD build/obj/./src/helpers.opp
LOAD build/obj/./src/uart.opp
LOAD build/obj/./src/scheduling.opp
LOAD build/obj/./src/gpio.opp
LOAD build/obj/./src/flash.opp
LOAD build/obj/./src/json.opp
LOAD build/obj/./driver/stm32f0/spl/src/stm32f0xx_exti.o
LOAD build/obj/./driver/stm32f0/spl/src/stm32f0xx_dma.o
LOAD build/obj/./driver/stm32f0/spl/src/stm32f0xx_dbgmcu.o
LOAD build/obj/./driver/stm32f0/spl/src/stm32f0xx_dac.o
LOAD build/obj/./driver/stm32f0/spl/src/stm32f0xx_can.o
LOAD build/obj/./driver/stm32f0/spl/src/stm32f0xx_rtc.o
LOAD build/obj/./driver/stm32f0/spl/src/stm32f0xx_pwr.o
LOAD build/obj/./driver/stm32f0/spl/src/stm32f0xx_i2c.o
LOAD build/obj/./driver/stm32f0/spl/src/stm32f0xx_crs.o
LOAD build/obj/./driver/stm32f0/spl/src/stm32f0xx_rcc.o
LOAD build/obj/./driver/stm32f0/spl/src/stm32f0xx_iwdg.o
LOAD build/obj/./driver/stm32f0/spl/src/stm32f0xx_flash.o
LOAD build/obj/./driver/stm32f0/spl/src/stm32f0xx_syscfg.o
LOAD build/obj/./driver/stm32f0/spl/src/stm32f0xx_crc.o
LOAD build/obj/./driver/stm32f0/spl/src/stm32f0xx_usart.o
LOAD build/obj/./driver/stm32f0/spl/src/stm32f0xx_cec.o
LOAD build/obj/./driver/stm32f0/spl/src/stm32f0xx_misc.o
LOAD build/obj/./driver/stm32f0/spl/src/stm32f0xx_wwdg.o
LOAD build/obj/./driver/stm32f0/spl/src/stm32f0xx_adc.o
LOAD build/obj/./driver/stm32f0/spl/src/stm32f0xx_tim.o
LOAD build/obj/./driver/stm32f0/spl/src/stm32f0xx_spi.o
LOAD build/obj/./driver/stm32f0/spl/src/stm32f0xx_gpio.o
LOAD build/obj/./driver/stm32f0/spl/src/stm32f0xx_comp.o
LOAD build/obj/./driver/stm32f0/cmsis/device/system_stm32f0xx.o
LOAD build/obj/./src/startup/startup_stm32f0.os
LOAD build/obj/src/example/example-gpio.opp
                0x0000000000001000                malloc_getpagesize_P = 0x1000
START GROUP
LOAD /usr/lib/gcc/arm-none-eabi/8.2.0/../../../../arm-none-eabi/lib/thumb/v6-m/nofp/libstdc++_nano.a
LOAD /usr/lib/gcc/arm-none-eabi/8.2.0/../../../../arm-none-eabi/lib/thumb/v6-m/nofp/libsupc++_nano.a
END GROUP
LOAD /usr/lib/gcc/arm-none-eabi/8.2.0/../../../../arm-none-eabi/lib/thumb/v6-m/nofp/libstdc++_nano.a
LOAD /usr/lib/gcc/arm-none-eabi/8.2.0/../../../../arm-none-eabi/lib/thumb/v6-m/nofp/libm.a
LOAD /usr/lib/gcc/arm-none-eabi/8.2.0/../../../../arm-none-eabi/lib/thumb/v6-m/nofp/libc_nano.a
START GROUP
LOAD /usr/lib/gcc/arm-none-eabi/8.2.0/thumb/v6-m/nofp/libgcc.a
LOAD /usr/lib/gcc/arm-none-eabi/8.2.0/../../../../arm-none-eabi/lib/thumb/v6-m/nofp/libc_nano.a
END GROUP
START GROUP
LOAD /usr/lib/gcc/arm-none-eabi/8.2.0/thumb/v6-m/nofp/libgcc.a
LOAD /usr/lib/gcc/arm-none-eabi/8.2.0/../../../../arm-none-eabi/lib/thumb/v6-m/nofp/libc_nano.a
LOAD /usr/lib/gcc/arm-none-eabi/8.2.0/../../../../arm-none-eabi/lib/thumb/v6-m/nofp/libnosys.a
END GROUP
START GROUP
LOAD /usr/lib/gcc/arm-none-eabi/8.2.0/thumb/v6-m/nofp/libgcc.a
LOAD /usr/lib/gcc/arm-none-eabi/8.2.0/../../../../arm-none-eabi/lib/thumb/v6-m/nofp/libc_nano.a
LOAD /usr/lib/gcc/arm-none-eabi/8.2.0/../../../../arm-none-eabi/lib/thumb/v6-m/nofp/libnosys.a
END GROUP
LOAD /usr/lib/gcc/arm-none-eabi/8.2.0/thumb/v6-m/nofp/crtend.o
LOAD /usr/lib/gcc/arm-none-eabi/8.2.0/thumb/v6-m/nofp/crtn.o
                0x0000000020001000                _estack = 0x20001000
                0x0000000000000000                _Min_Heap_Size = 0x0
                0x0000000000000080                _Min_Stack_Size = 0x80

.isr_vector     0x0000000008000000       0xc0
                0x0000000008000000                . = ALIGN (0x4)
 *(.isr_vector)
 .isr_vector    0x0000000008000000       0xc0 build/obj/./src/startup/startup_stm32f0.os
                0x0000000008000000                g_pfnVectors
                0x00000000080000c0                . = ALIGN (0x4)

.text           0x00000000080000c0     0x26c4
                0x00000000080000c0                . = ALIGN (0x4)
 *(.text)
 .text          0x00000000080000c0      0x5fc build/obj/./driver/stm32f0/spl/src/stm32f0xx_rcc.o
                0x00000000080000c0                RCC_DeInit
                0x0000000008000120                RCC_HSEConfig
                0x0000000008000130                RCC_AdjustHSICalibrationValue
                0x0000000008000144                RCC_HSICmd
                0x0000000008000160                RCC_AdjustHSI14CalibrationValue
                0x0000000008000174                RCC_HSI14Cmd
                0x0000000008000190                RCC_HSI14ADCRequestCmd
                0x00000000080001ac                RCC_LSEConfig
                0x00000000080001cc                RCC_LSEDriveConfig
                0x00000000080001e4                RCC_LSICmd
                0x0000000008000200                RCC_PLLConfig
                0x0000000008000220                RCC_PLLCmd
                0x0000000008000244                RCC_HSI48Cmd
                0x0000000008000268                RCC_PREDIV1Config
                0x000000000800027c                RCC_ClockSecuritySystemCmd
                0x00000000080002a0                RCC_MCOConfig
                0x00000000080002b8                RCC_SYSCLKConfig
                0x00000000080002cc                RCC_GetSYSCLKSource
                0x00000000080002dc                RCC_HCLKConfig
                0x00000000080002f0                RCC_PCLKConfig
                0x0000000008000308                RCC_ADCCLKConfig
                0x0000000008000338                RCC_CECCLKConfig
                0x0000000008000350                RCC_I2CCLKConfig
                0x0000000008000368                RCC_USARTCLKConfig
                0x000000000800039c                RCC_USBCLKConfig
                0x00000000080003b4                RCC_GetClocksFreq
                0x0000000008000530                RCC_RTCCLKConfig
                0x0000000008000540                RCC_RTCCLKCmd
                0x0000000008000564                RCC_BackupResetCmd
                0x0000000008000588                RCC_AHBPeriphClockCmd
                0x00000000080005a0                RCC_APB2PeriphClockCmd
                0x00000000080005b8                RCC_APB1PeriphClockCmd
                0x00000000080005d0                RCC_AHBPeriphResetCmd
                0x00000000080005e8                RCC_APB2PeriphResetCmd
                0x0000000008000600                RCC_APB1PeriphResetCmd
                0x0000000008000618                RCC_ITConfig
                0x0000000008000630                RCC_GetFlagStatus
                0x000000000800065c                RCC_WaitForHSEStartUp
                0x000000000800068a                RCC_ClearFlag
                0x000000000800069c                RCC_GetITStatus
                0x00000000080006b0                RCC_ClearITPendingBit
 .text          0x00000000080006bc      0x580 build/obj/./driver/stm32f0/spl/src/stm32f0xx_usart.o
                0x00000000080006bc                USART_DeInit
                0x000000000800079c                USART_Init
                0x0000000008000848                USART_StructInit
                0x000000000800085e                USART_ClockInit
                0x0000000008000880                USART_ClockStructInit
                0x000000000800088c                USART_Cmd
                0x00000000080008a0                USART_DirectionModeCmd
                0x00000000080008b0                USART_OverSampling8Cmd
                0x00000000080008cc                USART_OneBitMethodCmd
                0x00000000080008e8                USART_MSBFirstCmd
                0x0000000008000904                USART_DataInvCmd
                0x0000000008000920                USART_InvPinCmd
                0x0000000008000930                USART_SWAPPinCmd
                0x000000000800094c                USART_ReceiverTimeOutCmd
                0x0000000008000968                USART_SetReceiverTimeOut
                0x0000000008000978                USART_SetPrescaler
                0x0000000008000988                USART_STOPModeCmd
                0x000000000800099c                USART_StopModeWakeUpSourceConfig
                0x00000000080009b0                USART_AutoBaudRateCmd
                0x00000000080009cc                USART_AutoBaudRateConfig
                0x00000000080009e0                USART_SendData
                0x00000000080009e8                USART_ReceiveData
                0x00000000080009f0                USART_SetAddress
                0x0000000008000a02                USART_MuteModeCmd
                0x0000000008000a20                USART_MuteModeWakeUpConfig
                0x0000000008000a34                USART_AddressDetectionConfig
                0x0000000008000a44                USART_LINBreakDetectLengthConfig
                0x0000000008000a54                USART_LINCmd
                0x0000000008000a70                USART_HalfDuplexCmd
                0x0000000008000a84                USART_SetGuardTime
                0x0000000008000a94                USART_SmartCardCmd
                0x0000000008000aa8                USART_SmartCardNACKCmd
                0x0000000008000abc                USART_SetAutoRetryCount
                0x0000000008000ad4                USART_SetBlockLength
                0x0000000008000ae6                USART_IrDAConfig
                0x0000000008000af6                USART_IrDACmd
                0x0000000008000b0a                USART_DECmd
                0x0000000008000b28                USART_DEPolarityConfig
                0x0000000008000b3c                USART_SetDEAssertionTime
                0x0000000008000b54                USART_SetDEDeassertionTime
                0x0000000008000b6c                USART_DMACmd
                0x0000000008000b7c                USART_DMAReceptionErrorConfig
                0x0000000008000b90                USART_ITConfig
                0x0000000008000bbe                USART_RequestCmd
                0x0000000008000bd2                USART_OverrunDetectionConfig
                0x0000000008000be8                USART_GetFlagStatus
                0x0000000008000bf4                USART_ClearFlag
                0x0000000008000bf8                USART_GetITStatus
                0x0000000008000c30                USART_ClearITPendingBit
 .text          0x0000000008000c3c      0x9e4 build/obj/./driver/stm32f0/spl/src/stm32f0xx_tim.o
                0x0000000008000c98                TIM_DeInit
                0x0000000008000d8c                TIM_TimeBaseInit
                0x0000000008000e04                TIM_TimeBaseStructInit
                0x0000000008000e14                TIM_PrescalerConfig
                0x0000000008000e1a                TIM_CounterModeConfig
                0x0000000008000e26                TIM_SetCounter
                0x0000000008000e2a                TIM_SetAutoreload
                0x0000000008000e2e                TIM_GetCounter
                0x0000000008000e32                TIM_GetPrescaler
                0x0000000008000e38                TIM_UpdateDisableConfig
                0x0000000008000e4c                TIM_UpdateRequestConfig
                0x0000000008000e60                TIM_ARRPreloadConfig
                0x0000000008000e74                TIM_SelectOnePulseMode
                0x0000000008000e84                TIM_SetClockDivision
                0x0000000008000e98                TIM_Cmd
                0x0000000008000eac                TIM_BDTRConfig
                0x0000000008000ecc                TIM_BDTRStructInit
                0x0000000008000ede                TIM_CtrlPWMOutputs
                0x0000000008000ef6                TIM_OC1Init
                0x0000000008000f74                TIM_OC2Init
                0x0000000008001004                TIM_OC3Init
                0x0000000008001080                TIM_OC4Init
                0x00000000080010e0                TIM_OCStructInit
                0x00000000080010ee                TIM_SelectOCxM
                0x000000000800112c                TIM_SetCompare1
                0x0000000008001130                TIM_SetCompare2
                0x0000000008001134                TIM_SetCompare3
                0x0000000008001138                TIM_SetCompare4
                0x000000000800113c                TIM_ForcedOC1Config
                0x0000000008001148                TIM_ForcedOC2Config
                0x000000000800115c                TIM_ForcedOC3Config
                0x0000000008001168                TIM_ForcedOC4Config
                0x000000000800117c                TIM_CCPreloadControl
                0x0000000008001190                TIM_OC1PreloadConfig
                0x000000000800119c                TIM_OC2PreloadConfig
                0x00000000080011b0                TIM_OC3PreloadConfig
                0x00000000080011bc                TIM_OC4PreloadConfig
                0x00000000080011d0                TIM_OC1FastConfig
                0x00000000080011dc                TIM_OC2FastConfig
                0x00000000080011f0                TIM_OC3FastConfig
                0x00000000080011fc                TIM_OC4FastConfig
                0x0000000008001210                TIM_ClearOC1Ref
                0x000000000800121c                TIM_ClearOC2Ref
                0x000000000800122c                TIM_ClearOC3Ref
                0x0000000008001238                TIM_ClearOC4Ref
                0x0000000008001248                TIM_OC1PolarityConfig
                0x0000000008001254                TIM_OC1NPolarityConfig
                0x0000000008001260                TIM_OC2PolarityConfig
                0x0000000008001270                TIM_OC2NPolarityConfig
                0x0000000008001280                TIM_OC3PolarityConfig
                0x0000000008001294                TIM_OC3NPolarityConfig
                0x00000000080012a8                TIM_OC4PolarityConfig
                0x00000000080012bc                TIM_SelectOCREFClear
                0x00000000080012cc                TIM_CCxCmd
                0x00000000080012e4                TIM_CCxNCmd
                0x00000000080012fc                TIM_SelectCOM
                0x0000000008001310                TIM_ICStructInit
                0x0000000008001320                TIM_GetCapture1
                0x0000000008001324                TIM_GetCapture2
                0x0000000008001328                TIM_GetCapture3
                0x000000000800132c                TIM_GetCapture4
                0x0000000008001330                TIM_SetIC1Prescaler
                0x0000000008001340                TIM_SetIC2Prescaler
                0x0000000008001358                TIM_PWMIConfig
                0x00000000080013c0                TIM_SetIC3Prescaler
                0x00000000080013d0                TIM_SetIC4Prescaler
                0x00000000080013e8                TIM_ICInit
                0x00000000080014a8                TIM_ITConfig
                0x00000000080014b8                TIM_GenerateEvent
                0x00000000080014bc                TIM_GetFlagStatus
                0x00000000080014c8                TIM_ClearFlag
                0x00000000080014d0                TIM_GetITStatus
                0x00000000080014e6                TIM_ClearITPendingBit
                0x00000000080014ee                TIM_DMAConfig
                0x00000000080014f6                TIM_DMACmd
                0x00000000080014fe                TIM_SelectCCDMA
                0x0000000008001512                TIM_InternalClockConfig
                0x000000000800151c                TIM_ITRxExternalClockConfig
                0x0000000008001530                TIM_TIxExternalClockConfig
                0x000000000800155c                TIM_SelectInputTrigger
                0x0000000008001568                TIM_SelectOutputTrigger
                0x0000000008001578                TIM_SelectSlaveMode
                0x0000000008001588                TIM_SelectMasterSlaveMode
                0x0000000008001598                TIM_ETRConfig
                0x00000000080015ac                TIM_ETRClockMode1Config
                0x00000000080015c0                TIM_ETRClockMode2Config
                0x00000000080015d4                TIM_EncoderInterfaceConfig
                0x0000000008001604                TIM_SelectHallSensor
                0x0000000008001618                TIM_RemapConfig
 .text          0x0000000008001620      0x1bc build/obj/./driver/stm32f0/spl/src/stm32f0xx_gpio.o
                0x0000000008001620                GPIO_DeInit
                0x00000000080016cc                GPIO_Init
                0x0000000008001746                GPIO_StructInit
                0x0000000008001758                GPIO_PinLockConfig
                0x000000000800177c                GPIO_ReadInputDataBit
                0x0000000008001788                GPIO_ReadInputData
                0x000000000800178e                GPIO_ReadOutputDataBit
                0x000000000800179a                GPIO_ReadOutputData
                0x00000000080017a0                GPIO_SetBits
                0x00000000080017a4                GPIO_ResetBits
                0x00000000080017a8                GPIO_WriteBit
                0x00000000080017b4                GPIO_Write
                0x00000000080017b8                GPIO_PinAFConfig
 .text          0x00000000080017dc      0x15c build/obj/./driver/stm32f0/cmsis/device/system_stm32f0xx.o
                0x00000000080017dc                SystemInit
                0x00000000080018d4                SystemCoreClockUpdate
 .text          0x0000000008001938       0x14 /usr/lib/gcc/arm-none-eabi/8.2.0/thumb/v6-m/nofp/libgcc.a(_thumb1_case_uqi.o)
                0x0000000008001938                __gnu_thumb1_case_uqi
 .text          0x000000000800194c       0x8c /usr/lib/gcc/arm-none-eabi/8.2.0/thumb/v6-m/nofp/libgcc.a(_udivsi3.o)
                0x000000000800194c                __udivsi3
                0x000000000800194c                __aeabi_uidiv
                0x00000000080019c4                __aeabi_uidivmod
 .text          0x00000000080019d8        0x4 /usr/lib/gcc/arm-none-eabi/8.2.0/thumb/v6-m/nofp/libgcc.a(_dvmd_tls.o)
                0x00000000080019d8                __aeabi_ldiv0
                0x00000000080019d8                __aeabi_idiv0
 *(.text*)
 .text.__do_global_dtors_aux
                0x00000000080019dc       0x28 /usr/lib/gcc/arm-none-eabi/8.2.0/thumb/v6-m/nofp/crtbegin.o
 .text.frame_dummy
                0x0000000008001a04       0x20 /usr/lib/gcc/arm-none-eabi/8.2.0/thumb/v6-m/nofp/crtbegin.o
 .text._ZN5TimerC2EP11TIM_TypeDef
                0x0000000008001a24       0x78 build/obj/./src/timer.opp
                0x0000000008001a24                Timer::Timer(TIM_TypeDef*)
                0x0000000008001a24                Timer::Timer(TIM_TypeDef*)
 .text._ZN5TimerD2Ev
                0x0000000008001a9c       0x1a build/obj/./src/timer.opp
                0x0000000008001a9c                Timer::~Timer()
                0x0000000008001a9c                Timer::~Timer()
 *fill*         0x0000000008001ab6        0x2 
 .text._ZN5Timer15setClockEnabledE15FunctionalState
                0x0000000008001ab8       0xa4 build/obj/./src/timer.opp
                0x0000000008001ab8                Timer::setClockEnabled(FunctionalState)
 .text._ZN5Timer17_executeCallbacksEP11it_callback
                0x0000000008001b5c       0x2a build/obj/./src/timer.opp
                0x0000000008001b5c                Timer::_executeCallbacks(it_callback*)
 .text._ZN5Timer16_deleteCallbacksEv
                0x0000000008001b86       0x10 build/obj/./src/timer.opp
                0x0000000008001b86                Timer::_deleteCallbacks()
 *fill*         0x0000000008001b96        0x2 
 .text._ZN5Timer11_irqHandlerEv
                0x0000000008001b98      0x1e8 build/obj/./src/timer.opp
                0x0000000008001b98                Timer::_irqHandler()
 .text.TIM1_BRK_UP_TRG_COM_IRQHandler
                0x0000000008001d80        0xa build/obj/./src/timer.opp
                0x0000000008001d80                TIM1_BRK_UP_TRG_COM_IRQHandler
 .text.TIM1_CC_IRQHandler
                0x0000000008001d8a        0xa build/obj/./src/timer.opp
                0x0000000008001d8a                TIM1_CC_IRQHandler
 .text.TIM2_IRQHandler
                0x0000000008001d94        0xa build/obj/./src/timer.opp
                0x0000000008001d94                TIM2_IRQHandler
 *fill*         0x0000000008001d9e        0x2 
 .text.TIM3_IRQHandler
                0x0000000008001da0       0x18 build/obj/./src/timer.opp
                0x0000000008001da0                TIM3_IRQHandler
 .text._Z41__static_initialization_and_destruction_0ii
                0x0000000008001db8       0x4c build/obj/./src/timer.opp
 .text._GLOBAL__sub_I_timer3
                0x0000000008001e04       0x18 build/obj/./src/timer.opp
 .text._ZN4UartC2EP13USART_TypeDef
                0x0000000008001e1c       0x26 build/obj/./src/uart.opp
                0x0000000008001e1c                Uart::Uart(USART_TypeDef*)
                0x0000000008001e1c                Uart::Uart(USART_TypeDef*)
 *fill*         0x0000000008001e42        0x2 
 .text._ZN4Uart15setClockEnabledE15FunctionalState
                0x0000000008001e44       0x3c build/obj/./src/uart.opp
                0x0000000008001e44                Uart::setClockEnabled(FunctionalState)
 .text.USART1_IRQHandler
                0x0000000008001e80      0x154 build/obj/./src/uart.opp
                0x0000000008001e80                USART1_IRQHandler
 .text._Z41__static_initialization_and_destruction_0ii
                0x0000000008001fd4       0x38 build/obj/./src/uart.opp
 .text._GLOBAL__sub_I__ZN4Uart15setClockEnabledE15FunctionalState
                0x000000000800200c       0x18 build/obj/./src/uart.opp
 .text._Z6uDelaym
                0x0000000008002024       0x34 build/obj/./src/scheduling.opp
                0x0000000008002024                uDelay(unsigned long)
 .text._Z6mDelaym
                0x0000000008002058       0x24 build/obj/./src/scheduling.opp
                0x0000000008002058                mDelay(unsigned long)
 .text.SysTick_Handler
                0x000000000800207c       0x30 build/obj/./src/scheduling.opp
                0x000000000800207c                SysTick_Handler
 .text._ZN4Gpio4initE16GPIOMode_TypeDef16GPIOPuPd_TypeDef17GPIOOType_TypeDef17GPIOSpeed_TypeDef
                0x00000000080020ac       0x6c build/obj/./src/gpio.opp
                0x00000000080020ac                Gpio::init(GPIOMode_TypeDef, GPIOPuPd_TypeDef, GPIOOType_TypeDef, GPIOSpeed_TypeDef)
 .text._ZN4GpioC2EP12GPIO_TypeDeft
                0x0000000008002118       0x3e build/obj/./src/gpio.opp
                0x0000000008002118                Gpio::Gpio(GPIO_TypeDef*, unsigned short)
                0x0000000008002118                Gpio::Gpio(GPIO_TypeDef*, unsigned short)
 *fill*         0x0000000008002156        0x2 
 .text._ZN4Gpio12_clockEnableEv
                0x0000000008002158       0x7c build/obj/./src/gpio.opp
                0x0000000008002158                Gpio::_clockEnable()
 .text._ZN4Gpio3setEb
                0x00000000080021d4       0x52 build/obj/./src/gpio.opp
                0x00000000080021d4                Gpio::set(bool)
 .text._ZN4Gpio5resetEv
                0x0000000008002226       0x1a build/obj/./src/gpio.opp
                0x0000000008002226                Gpio::reset()
 .text._ZN4Gpio10readOutputEv
                0x0000000008002240       0x44 build/obj/./src/gpio.opp
                0x0000000008002240                Gpio::readOutput()
 .text._ZN4Gpio6toggleEv
                0x0000000008002284       0x46 build/obj/./src/gpio.opp
                0x0000000008002284                Gpio::toggle()
 *fill*         0x00000000080022ca        0x2 
 .text.Reset_Handler
                0x00000000080022cc       0x50 build/obj/./src/startup/startup_stm32f0.os
                0x00000000080022cc                Reset_Handler
 .text.Default_Handler
                0x000000000800231c        0x2 build/obj/./src/startup/startup_stm32f0.os
                0x000000000800231c                TSC_IRQHandler
                0x000000000800231c                HardFault_Handler
                0x000000000800231c                ADC1_COMP_IRQHandler
                0x000000000800231c                PVD_IRQHandler
                0x000000000800231c                PendSV_Handler
                0x000000000800231c                NMI_Handler
                0x000000000800231c                I2C1_IRQHandler
                0x000000000800231c                RCC_CRS_IRQHandler
                0x000000000800231c                SPI1_IRQHandler
                0x000000000800231c                TIM6_DAC_IRQHandler
                0x000000000800231c                EXTI2_3_IRQHandler
                0x000000000800231c                I2C2_IRQHandler
                0x000000000800231c                TIM17_IRQHandler
                0x000000000800231c                CEC_CAN_IRQHandler
                0x000000000800231c                RTC_IRQHandler
                0x000000000800231c                TIM16_IRQHandler
                0x000000000800231c                EXTI4_15_IRQHandler
                0x000000000800231c                DMA1_Channel1_IRQHandler
                0x000000000800231c                Default_Handler
                0x000000000800231c                TIM14_IRQHandler
                0x000000000800231c                DMA1_Channel4_5_IRQHandler
                0x000000000800231c                TIM15_IRQHandler
                0x000000000800231c                EXTI0_1_IRQHandler
                0x000000000800231c                SPI2_IRQHandler
                0x000000000800231c                SVC_Handler
                0x000000000800231c                WWDG_IRQHandler
                0x000000000800231c                DMA1_Channel2_3_IRQHandler
                0x000000000800231c                USART2_IRQHandler
                0x000000000800231c                FLASH_IRQHandler
 *fill*         0x000000000800231e        0x2 
 .text.NVIC_SetPriority
                0x0000000008002320       0xf8 build/obj/src/example/example-gpio.opp
 .text.SysTick_Config
                0x0000000008002418       0x48 build/obj/src/example/example-gpio.opp
 .text.main     0x0000000008002460       0x8c build/obj/src/example/example-gpio.opp
                0x0000000008002460                main
 .text._Z41__static_initialization_and_destruction_0ii
                0x00000000080024ec       0x38 build/obj/src/example/example-gpio.opp
 .text._GLOBAL__sub_I_gpio_Led
                0x0000000008002524       0x18 build/obj/src/example/example-gpio.opp
 .text.__aeabi_atexit
                0x000000000800253c        0xe /usr/lib/gcc/arm-none-eabi/8.2.0/../../../../arm-none-eabi/lib/thumb/v6-m/nofp/libstdc++_nano.a(atexit_arm.o)
                0x000000000800253c                __aeabi_atexit
 *fill*         0x000000000800254a        0x2 
 .text.__cxa_atexit
                0x000000000800254c       0x1c /usr/lib/gcc/arm-none-eabi/8.2.0/../../../../arm-none-eabi/lib/thumb/v6-m/nofp/libc_nano.a(lib_a-cxa_atexit.o)
                0x000000000800254c                __cxa_atexit
 .text.__libc_init_array
                0x0000000008002568       0x48 /usr/lib/gcc/arm-none-eabi/8.2.0/../../../../arm-none-eabi/lib/thumb/v6-m/nofp/libc_nano.a(lib_a-init.o)
                0x0000000008002568                __libc_init_array
 .text.malloc   0x00000000080025b0       0x14 /usr/lib/gcc/arm-none-eabi/8.2.0/../../../../arm-none-eabi/lib/thumb/v6-m/nofp/libc_nano.a(lib_a-malloc.o)
                0x00000000080025b0                malloc
 .text._malloc_r
                0x00000000080025c4       0xbc /usr/lib/gcc/arm-none-eabi/8.2.0/../../../../arm-none-eabi/lib/thumb/v6-m/nofp/libc_nano.a(lib_a-nano-mallocr.o)
                0x00000000080025c4                _malloc_r
 .text._sbrk_r  0x0000000008002680       0x24 /usr/lib/gcc/arm-none-eabi/8.2.0/../../../../arm-none-eabi/lib/thumb/v6-m/nofp/libc_nano.a(lib_a-sbrkr.o)
                0x0000000008002680                _sbrk_r
 .text.__register_exitproc
                0x00000000080026a4       0xa8 /usr/lib/gcc/arm-none-eabi/8.2.0/../../../../arm-none-eabi/lib/thumb/v6-m/nofp/libc_nano.a(lib_a-__atexit.o)
                0x00000000080026a4                __register_exitproc
 .text.__malloc_lock
                0x000000000800274c        0x2 /usr/lib/gcc/arm-none-eabi/8.2.0/../../../../arm-none-eabi/lib/thumb/v6-m/nofp/libc_nano.a(lib_a-mlock.o)
                0x000000000800274c                __malloc_lock
 .text.__malloc_unlock
                0x000000000800274e        0x2 /usr/lib/gcc/arm-none-eabi/8.2.0/../../../../arm-none-eabi/lib/thumb/v6-m/nofp/libc_nano.a(lib_a-mlock.o)
                0x000000000800274e                __malloc_unlock
 .text._sbrk    0x0000000008002750       0x1c /usr/lib/gcc/arm-none-eabi/8.2.0/../../../../arm-none-eabi/lib/thumb/v6-m/nofp/libnosys.a(sbrk.o)
                0x0000000008002750                _sbrk
 *(.glue_7)
 .glue_7        0x000000000800276c        0x0 linker stubs
 *(.glue_7t)
 .glue_7t       0x000000000800276c        0x0 linker stubs
 *(.eh_frame)
 .eh_frame      0x000000000800276c        0x0 /usr/lib/gcc/arm-none-eabi/8.2.0/thumb/v6-m/nofp/crtbegin.o
 *(.init)
 .init          0x000000000800276c        0x4 /usr/lib/gcc/arm-none-eabi/8.2.0/thumb/v6-m/nofp/crti.o
                0x000000000800276c                _init
 .init          0x0000000008002770        0x8 /usr/lib/gcc/arm-none-eabi/8.2.0/thumb/v6-m/nofp/crtn.o
 *(.fini)
 .fini          0x0000000008002778        0x4 /usr/lib/gcc/arm-none-eabi/8.2.0/thumb/v6-m/nofp/crti.o
                0x0000000008002778                _fini
 .fini          0x000000000800277c        0x8 /usr/lib/gcc/arm-none-eabi/8.2.0/thumb/v6-m/nofp/crtn.o
                0x0000000008002784                . = ALIGN (0x4)
                0x0000000008002784                _etext = .

.vfp11_veneer   0x0000000008002784        0x0
 .vfp11_veneer  0x0000000008002784        0x0 linker stubs

.v4_bx          0x0000000008002784        0x0
 .v4_bx         0x0000000008002784        0x0 linker stubs

.iplt           0x0000000008002784        0x0
 .iplt          0x0000000008002784        0x0 /usr/lib/gcc/arm-none-eabi/8.2.0/thumb/v6-m/nofp/crtbegin.o

.rodata         0x0000000008002784       0x64
                0x0000000008002784                . = ALIGN (0x4)
 *(.rodata)
 *(.rodata*)
 .rodata.__on_exit_args
                0x0000000008002784        0x4 /usr/lib/gcc/arm-none-eabi/8.2.0/../../../../arm-none-eabi/lib/thumb/v6-m/nofp/libc_nano.a(lib_a-on_exit_args.o)
                0x0000000008002784                __on_exit_args
 .rodata.__sf_fake_stderr
                0x0000000008002788       0x20 /usr/lib/gcc/arm-none-eabi/8.2.0/../../../../arm-none-eabi/lib/thumb/v6-m/nofp/libc_nano.a(lib_a-findfp.o)
                0x0000000008002788                __sf_fake_stderr
 .rodata.__sf_fake_stdin
                0x00000000080027a8       0x20 /usr/lib/gcc/arm-none-eabi/8.2.0/../../../../arm-none-eabi/lib/thumb/v6-m/nofp/libc_nano.a(lib_a-findfp.o)
                0x00000000080027a8                __sf_fake_stdin
 .rodata.__sf_fake_stdout
                0x00000000080027c8       0x20 /usr/lib/gcc/arm-none-eabi/8.2.0/../../../../arm-none-eabi/lib/thumb/v6-m/nofp/libc_nano.a(lib_a-findfp.o)
                0x00000000080027c8                __sf_fake_stdout
                0x00000000080027e8                . = ALIGN (0x4)

.rel.dyn        0x00000000080027e8        0x0
 .rel.iplt      0x00000000080027e8        0x0 /usr/lib/gcc/arm-none-eabi/8.2.0/thumb/v6-m/nofp/crtbegin.o

.ARM.extab
 *(.ARM.extab* .gnu.linkonce.armextab.*)

.ARM            0x00000000080027e8        0x0
                0x00000000080027e8                __exidx_start = .
 *(.ARM.exidx*)
                0x00000000080027e8                __exidx_end = .

.preinit_array  0x00000000080027e8        0x0
                0x00000000080027e8                PROVIDE (__preinit_array_start = .)
 *(.preinit_array*)
                0x00000000080027e8                PROVIDE (__preinit_array_end = .)

.init_array     0x00000000080027e8       0x10
                0x00000000080027e8                PROVIDE (__init_array_start = .)
 *(SORT_BY_NAME(.init_array.*))
 *(.init_array*)
 .init_array    0x00000000080027e8        0x4 /usr/lib/gcc/arm-none-eabi/8.2.0/thumb/v6-m/nofp/crtbegin.o
 .init_array    0x00000000080027ec        0x4 build/obj/./src/timer.opp
 .init_array    0x00000000080027f0        0x4 build/obj/./src/uart.opp
 .init_array    0x00000000080027f4        0x4 build/obj/src/example/example-gpio.opp
                0x00000000080027f8                PROVIDE (__init_array_end = .)

.fini_array     0x00000000080027f8        0x4
                0x00000000080027f8                PROVIDE (__fini_array_start = .)
 *(SORT_BY_NAME(.fini_array.*))
 *(.fini_array*)
 .fini_array    0x00000000080027f8        0x4 /usr/lib/gcc/arm-none-eabi/8.2.0/thumb/v6-m/nofp/crtbegin.o
                0x00000000080027fc                PROVIDE (__fini_array_end = .)
                0x00000000080027fc                _sidata = LOADADDR (.data)

.data           0x0000000020000000       0x8c load address 0x00000000080027fc
                0x0000000020000000                . = ALIGN (0x4)
                0x0000000020000000                _sdata = .
 *(.data)
 .data          0x0000000020000000       0x10 build/obj/./driver/stm32f0/spl/src/stm32f0xx_rcc.o
 .data          0x0000000020000010       0x14 build/obj/./driver/stm32f0/cmsis/device/system_stm32f0xx.o
                0x0000000020000010                SystemCoreClock
                0x0000000020000014                AHBPrescTable
 *(.data*)
 .data.__dso_handle
                0x0000000020000024        0x4 /usr/lib/gcc/arm-none-eabi/8.2.0/thumb/v6-m/nofp/crtbegin.o
                0x0000000020000024                __dso_handle
 .data._impure_ptr
                0x0000000020000028        0x4 /usr/lib/gcc/arm-none-eabi/8.2.0/../../../../arm-none-eabi/lib/thumb/v6-m/nofp/libc_nano.a(lib_a-impure.o)
                0x0000000020000028                _impure_ptr
 .data.impure_data
                0x000000002000002c       0x60 /usr/lib/gcc/arm-none-eabi/8.2.0/../../../../arm-none-eabi/lib/thumb/v6-m/nofp/libc_nano.a(lib_a-impure.o)
                0x000000002000008c                . = ALIGN (0x4)
                0x000000002000008c                _edata = .

.igot.plt       0x000000002000008c        0x0 load address 0x0000000008002888
 .igot.plt      0x000000002000008c        0x0 /usr/lib/gcc/arm-none-eabi/8.2.0/thumb/v6-m/nofp/crtbegin.o
                0x000000002000008c                . = ALIGN (0x4)

.bss            0x000000002000008c      0x298 load address 0x0000000008002888
                0x000000002000008c                _sbss = .
                0x000000002000008c                __bss_start__ = _sbss
 *(.bss)
 *(.bss*)
 .bss.completed.8856
                0x000000002000008c        0x1 /usr/lib/gcc/arm-none-eabi/8.2.0/thumb/v6-m/nofp/crtbegin.o
 *fill*         0x000000002000008d        0x3 
 .bss.object.8861
                0x0000000020000090       0x18 /usr/lib/gcc/arm-none-eabi/8.2.0/thumb/v6-m/nofp/crtbegin.o
 .bss.timer3    0x00000000200000a8       0x34 build/obj/./src/timer.opp
                0x00000000200000a8                timer3
 .bss.uart1     0x00000000200000dc       0x8c build/obj/./src/uart.opp
                0x00000000200000dc                uart1
 .bss.MicroSeconds
                0x0000000020000168        0x4 build/obj/./src/scheduling.opp
                0x0000000020000168                MicroSeconds
 .bss.systick_frequency
                0x000000002000016c        0x4 build/obj/./src/scheduling.opp
                0x000000002000016c                systick_frequency
 .bss.gpio_Led  0x0000000020000170        0xc build/obj/src/example/example-gpio.opp
                0x0000000020000170                gpio_Led
 .bss.__malloc_free_list
                0x000000002000017c        0x4 /usr/lib/gcc/arm-none-eabi/8.2.0/../../../../arm-none-eabi/lib/thumb/v6-m/nofp/libc_nano.a(lib_a-nano-mallocr.o)
                0x000000002000017c                __malloc_free_list
 .bss.__malloc_sbrk_start
                0x0000000020000180        0x4 /usr/lib/gcc/arm-none-eabi/8.2.0/../../../../arm-none-eabi/lib/thumb/v6-m/nofp/libc_nano.a(lib_a-nano-mallocr.o)
                0x0000000020000180                __malloc_sbrk_start
 .bss._on_exit_args_instance
                0x0000000020000184      0x108 /usr/lib/gcc/arm-none-eabi/8.2.0/../../../../arm-none-eabi/lib/thumb/v6-m/nofp/libc_nano.a(lib_a-on_exit_args.o)
 .bss._global_atexit0
                0x000000002000028c       0x8c /usr/lib/gcc/arm-none-eabi/8.2.0/../../../../arm-none-eabi/lib/thumb/v6-m/nofp/libc_nano.a(lib_a-__atexit.o)
 .bss._global_atexit
                0x0000000020000318        0x4 /usr/lib/gcc/arm-none-eabi/8.2.0/../../../../arm-none-eabi/lib/thumb/v6-m/nofp/libc_nano.a(lib_a-__call_atexit.o)
                0x0000000020000318                _global_atexit
 .bss.heap_end.4194
                0x000000002000031c        0x4 /usr/lib/gcc/arm-none-eabi/8.2.0/../../../../arm-none-eabi/lib/thumb/v6-m/nofp/libnosys.a(sbrk.o)
 *(COMMON)
 COMMON         0x0000000020000320        0x4 /usr/lib/gcc/arm-none-eabi/8.2.0/../../../../arm-none-eabi/lib/thumb/v6-m/nofp/libc_nano.a(lib_a-reent.o)
                0x0000000020000320                errno
                0x0000000020000324                . = ALIGN (0x4)
                0x0000000020000324                _ebss = .
                0x0000000020000324                __bss_end__ = _ebss

._user_heap_stack
                0x0000000020000324       0x80 load address 0x0000000008002888
                0x0000000020000324                . = ALIGN (0x4)
                0x0000000020000324                PROVIDE (end = .)
                [!provide]                        PROVIDE (_end = .)
                0x0000000020000324                . = (. + _Min_Heap_Size)
                0x00000000200003a4                . = (. + _Min_Stack_Size)
 *fill*         0x0000000020000324       0x80 
                0x00000000200003a4                . = ALIGN (0x4)

.memory_b1_text
 *(.mb1text)
 *(.mb1text*)
 *(.mb1rodata)
 *(.mb1rodata*)

/DISCARD/
 libc.a(*)
 libm.a(*)
 libgcc.a(*)

.ARM.attributes
                0x0000000000000000       0x28
 *(.ARM.attributes)
 .ARM.attributes
                0x0000000000000000       0x1e /usr/lib/gcc/arm-none-eabi/8.2.0/thumb/v6-m/nofp/crti.o
 .ARM.attributes
                0x000000000000001e       0x2c /usr/lib/gcc/arm-none-eabi/8.2.0/thumb/v6-m/nofp/crtbegin.o
 .ARM.attributes
                0x000000000000004a       0x2c build/obj/./src/timer.opp
 .ARM.attributes
                0x0000000000000076       0x2c build/obj/./src/uart.opp
 .ARM.attributes
                0x00000000000000a2       0x2c build/obj/./src/scheduling.opp
 .ARM.attributes
                0x00000000000000ce       0x2c build/obj/./src/gpio.opp
 .ARM.attributes
                0x00000000000000fa       0x2c build/obj/./driver/stm32f0/spl/src/stm32f0xx_rcc.o
 .ARM.attributes
                0x0000000000000126       0x2c build/obj/./driver/stm32f0/spl/src/stm32f0xx_usart.o
 .ARM.attributes
                0x0000000000000152       0x2c build/obj/./driver/stm32f0/spl/src/stm32f0xx_tim.o
 .ARM.attributes
                0x000000000000017e       0x2c build/obj/./driver/stm32f0/spl/src/stm32f0xx_gpio.o
 .ARM.attributes
                0x00000000000001aa       0x2c build/obj/./driver/stm32f0/cmsis/device/system_stm32f0xx.o
 .ARM.attributes
                0x00000000000001d6       0x21 build/obj/./src/startup/startup_stm32f0.os
 .ARM.attributes
                0x00000000000001f7       0x2c build/obj/src/example/example-gpio.opp
 .ARM.attributes
                0x0000000000000223       0x2c /usr/lib/gcc/arm-none-eabi/8.2.0/../../../../arm-none-eabi/lib/thumb/v6-m/nofp/libstdc++_nano.a(atexit_arm.o)
 .ARM.attributes
                0x000000000000024f       0x2c /usr/lib/gcc/arm-none-eabi/8.2.0/../../../../arm-none-eabi/lib/thumb/v6-m/nofp/libc_nano.a(lib_a-cxa_atexit.o)
 .ARM.attributes
                0x000000000000027b       0x2c /usr/lib/gcc/arm-none-eabi/8.2.0/../../../../arm-none-eabi/lib/thumb/v6-m/nofp/libc_nano.a(lib_a-impure.o)
 .ARM.attributes
                0x00000000000002a7       0x2c /usr/lib/gcc/arm-none-eabi/8.2.0/../../../../arm-none-eabi/lib/thumb/v6-m/nofp/libc_nano.a(lib_a-init.o)
 .ARM.attributes
                0x00000000000002d3       0x2c /usr/lib/gcc/arm-none-eabi/8.2.0/../../../../arm-none-eabi/lib/thumb/v6-m/nofp/libc_nano.a(lib_a-malloc.o)
 .ARM.attributes
                0x00000000000002ff       0x2c /usr/lib/gcc/arm-none-eabi/8.2.0/../../../../arm-none-eabi/lib/thumb/v6-m/nofp/libc_nano.a(lib_a-nano-mallocr.o)
 .ARM.attributes
                0x000000000000032b       0x2c /usr/lib/gcc/arm-none-eabi/8.2.0/../../../../arm-none-eabi/lib/thumb/v6-m/nofp/libc_nano.a(lib_a-on_exit_args.o)
 .ARM.attributes
                0x0000000000000357       0x2c /usr/lib/gcc/arm-none-eabi/8.2.0/../../../../arm-none-eabi/lib/thumb/v6-m/nofp/libc_nano.a(lib_a-sbrkr.o)
 .ARM.attributes
                0x0000000000000383       0x2c /usr/lib/gcc/arm-none-eabi/8.2.0/../../../../arm-none-eabi/lib/thumb/v6-m/nofp/libc_nano.a(lib_a-__atexit.o)
 .ARM.attributes
                0x00000000000003af       0x2c /usr/lib/gcc/arm-none-eabi/8.2.0/../../../../arm-none-eabi/lib/thumb/v6-m/nofp/libc_nano.a(lib_a-__call_atexit.o)
 .ARM.attributes
                0x00000000000003db       0x2c /usr/lib/gcc/arm-none-eabi/8.2.0/../../../../arm-none-eabi/lib/thumb/v6-m/nofp/libc_nano.a(lib_a-findfp.o)
 .ARM.attributes
                0x0000000000000407       0x2c /usr/lib/gcc/arm-none-eabi/8.2.0/../../../../arm-none-eabi/lib/thumb/v6-m/nofp/libc_nano.a(lib_a-mlock.o)
 .ARM.attributes
                0x0000000000000433       0x2c /usr/lib/gcc/arm-none-eabi/8.2.0/../../../../arm-none-eabi/lib/thumb/v6-m/nofp/libc_nano.a(lib_a-reent.o)
 .ARM.attributes
                0x000000000000045f       0x1e /usr/lib/gcc/arm-none-eabi/8.2.0/thumb/v6-m/nofp/libgcc.a(_thumb1_case_uqi.o)
 .ARM.attributes
                0x000000000000047d       0x1e /usr/lib/gcc/arm-none-eabi/8.2.0/thumb/v6-m/nofp/libgcc.a(_udivsi3.o)
 .ARM.attributes
                0x000000000000049b       0x1e /usr/lib/gcc/arm-none-eabi/8.2.0/thumb/v6-m/nofp/libgcc.a(_dvmd_tls.o)
 .ARM.attributes
                0x00000000000004b9       0x2c /usr/lib/gcc/arm-none-eabi/8.2.0/../../../../arm-none-eabi/lib/thumb/v6-m/nofp/libnosys.a(sbrk.o)
 .ARM.attributes
                0x00000000000004e5       0x1e /usr/lib/gcc/arm-none-eabi/8.2.0/thumb/v6-m/nofp/crtn.o
OUTPUT(example-gpio.elf elf32-littlearm)

.debug_info     0x0000000000000000     0x9e47
 .debug_info    0x0000000000000000     0x196b build/obj/./src/timer.opp
 .debug_info    0x000000000000196b     0x1071 build/obj/./src/uart.opp
 .debug_info    0x00000000000029dc      0x53e build/obj/./src/scheduling.opp
 .debug_info    0x0000000000002f1a      0x756 build/obj/./src/gpio.opp
 .debug_info    0x0000000000003670      0xb80 build/obj/./driver/stm32f0/spl/src/stm32f0xx_rcc.o
 .debug_info    0x00000000000041f0     0x10bc build/obj/./driver/stm32f0/spl/src/stm32f0xx_usart.o
 .debug_info    0x00000000000052ac     0x23f3 build/obj/./driver/stm32f0/spl/src/stm32f0xx_tim.o
 .debug_info    0x000000000000769f      0x744 build/obj/./driver/stm32f0/spl/src/stm32f0xx_gpio.o
 .debug_info    0x0000000000007de3      0x35e build/obj/./driver/stm32f0/cmsis/device/system_stm32f0xx.o
 .debug_info    0x0000000000008141       0x22 build/obj/./src/startup/startup_stm32f0.os
 .debug_info    0x0000000000008163     0x1ce4 build/obj/src/example/example-gpio.opp

.debug_abbrev   0x0000000000000000     0x1a25
 .debug_abbrev  0x0000000000000000      0x395 build/obj/./src/timer.opp
 .debug_abbrev  0x0000000000000395      0x36b build/obj/./src/uart.opp
 .debug_abbrev  0x0000000000000700      0x1f2 build/obj/./src/scheduling.opp
 .debug_abbrev  0x00000000000008f2      0x278 build/obj/./src/gpio.opp
 .debug_abbrev  0x0000000000000b6a      0x281 build/obj/./driver/stm32f0/spl/src/stm32f0xx_rcc.o
 .debug_abbrev  0x0000000000000deb      0x207 build/obj/./driver/stm32f0/spl/src/stm32f0xx_usart.o
 .debug_abbrev  0x0000000000000ff2      0x2e1 build/obj/./driver/stm32f0/spl/src/stm32f0xx_tim.o
 .debug_abbrev  0x00000000000012d3      0x22c build/obj/./driver/stm32f0/spl/src/stm32f0xx_gpio.o
 .debug_abbrev  0x00000000000014ff      0x197 build/obj/./driver/stm32f0/cmsis/device/system_stm32f0xx.o
 .debug_abbrev  0x0000000000001696       0x12 build/obj/./src/startup/startup_stm32f0.os
 .debug_abbrev  0x00000000000016a8      0x37d build/obj/src/example/example-gpio.opp

.debug_aranges  0x0000000000000000      0x3c8
 .debug_aranges
                0x0000000000000000      0x188 build/obj/./src/timer.opp
 .debug_aranges
                0x0000000000000188       0x88 build/obj/./src/uart.opp
 .debug_aranges
                0x0000000000000210       0x50 build/obj/./src/scheduling.opp
 .debug_aranges
                0x0000000000000260       0x60 build/obj/./src/gpio.opp
 .debug_aranges
                0x00000000000002c0       0x20 build/obj/./driver/stm32f0/spl/src/stm32f0xx_rcc.o
 .debug_aranges
                0x00000000000002e0       0x20 build/obj/./driver/stm32f0/spl/src/stm32f0xx_usart.o
 .debug_aranges
                0x0000000000000300       0x20 build/obj/./driver/stm32f0/spl/src/stm32f0xx_tim.o
 .debug_aranges
                0x0000000000000320       0x20 build/obj/./driver/stm32f0/spl/src/stm32f0xx_gpio.o
 .debug_aranges
                0x0000000000000340       0x20 build/obj/./driver/stm32f0/cmsis/device/system_stm32f0xx.o
 .debug_aranges
                0x0000000000000360       0x28 build/obj/./src/startup/startup_stm32f0.os
 .debug_aranges
                0x0000000000000388       0x40 build/obj/src/example/example-gpio.opp

.debug_ranges   0x0000000000000000      0x340
 .debug_ranges  0x0000000000000000      0x178 build/obj/./src/timer.opp
 .debug_ranges  0x0000000000000178       0x78 build/obj/./src/uart.opp
 .debug_ranges  0x00000000000001f0       0x40 build/obj/./src/scheduling.opp
 .debug_ranges  0x0000000000000230       0x50 build/obj/./src/gpio.opp
 .debug_ranges  0x0000000000000280       0x58 build/obj/./driver/stm32f0/spl/src/stm32f0xx_tim.o
 .debug_ranges  0x00000000000002d8       0x18 build/obj/./driver/stm32f0/cmsis/device/system_stm32f0xx.o
 .debug_ranges  0x00000000000002f0       0x20 build/obj/./src/startup/startup_stm32f0.os
 .debug_ranges  0x0000000000000310       0x30 build/obj/src/example/example-gpio.opp

.debug_line     0x0000000000000000     0x45c3
 .debug_line    0x0000000000000000      0x951 build/obj/./src/timer.opp
 .debug_line    0x0000000000000951      0x3ac build/obj/./src/uart.opp
 .debug_line    0x0000000000000cfd      0x26b build/obj/./src/scheduling.opp
 .debug_line    0x0000000000000f68      0x2a0 build/obj/./src/gpio.opp
 .debug_line    0x0000000000001208      0xa9e build/obj/./driver/stm32f0/spl/src/stm32f0xx_rcc.o
 .debug_line    0x0000000000001ca6      0xa2d build/obj/./driver/stm32f0/spl/src/stm32f0xx_usart.o
 .debug_line    0x00000000000026d3     0x14b0 build/obj/./driver/stm32f0/spl/src/stm32f0xx_tim.o
 .debug_line    0x0000000000003b83      0x3db build/obj/./driver/stm32f0/spl/src/stm32f0xx_gpio.o
 .debug_line    0x0000000000003f5e      0x2cb build/obj/./driver/stm32f0/cmsis/device/system_stm32f0xx.o
 .debug_line    0x0000000000004229       0x80 build/obj/./src/startup/startup_stm32f0.os
 .debug_line    0x00000000000042a9      0x31a build/obj/src/example/example-gpio.opp

.debug_str      0x0000000000000000     0x3669
 .debug_str     0x0000000000000000     0x1280 build/obj/./src/timer.opp
                                       0x13e7 (size before relaxing)
 .debug_str     0x0000000000001280      0x672 build/obj/./src/uart.opp
                                        0x9e5 (size before relaxing)
 .debug_str     0x00000000000018f2      0x28c build/obj/./src/scheduling.opp
                                        0x52f (size before relaxing)
 .debug_str     0x0000000000001b7e      0x37b build/obj/./src/gpio.opp
                                        0x653 (size before relaxing)
 .debug_str     0x0000000000001ef9      0x540 build/obj/./driver/stm32f0/spl/src/stm32f0xx_rcc.o
                                        0x788 (size before relaxing)
 .debug_str     0x0000000000002439      0x6bb build/obj/./driver/stm32f0/spl/src/stm32f0xx_usart.o
                                        0x9b5 (size before relaxing)
 .debug_str     0x0000000000002af4      0x931 build/obj/./driver/stm32f0/spl/src/stm32f0xx_tim.o
                                        0xdf5 (size before relaxing)
 .debug_str     0x0000000000003425      0x155 build/obj/./driver/stm32f0/spl/src/stm32f0xx_gpio.o
                                        0x48b (size before relaxing)
 .debug_str     0x000000000000357a       0x80 build/obj/./driver/stm32f0/cmsis/device/system_stm32f0xx.o
                                        0x275 (size before relaxing)
 .debug_str     0x00000000000035fa       0x2c build/obj/./src/startup/startup_stm32f0.os
                                         0x60 (size before relaxing)
 .debug_str     0x0000000000003626       0x43 build/obj/src/example/example-gpio.opp
                                       0x1732 (size before relaxing)

.comment        0x0000000000000000       0x1d
 .comment       0x0000000000000000       0x1d build/obj/./src/timer.opp
                                         0x1e (size before relaxing)
 .comment       0x000000000000001d       0x1e build/obj/./src/uart.opp
 .comment       0x000000000000001d       0x1e build/obj/./src/scheduling.opp
 .comment       0x000000000000001d       0x1e build/obj/./src/gpio.opp
 .comment       0x000000000000001d       0x1e build/obj/./driver/stm32f0/spl/src/stm32f0xx_rcc.o
 .comment       0x000000000000001d       0x1e build/obj/./driver/stm32f0/spl/src/stm32f0xx_usart.o
 .comment       0x000000000000001d       0x1e build/obj/./driver/stm32f0/spl/src/stm32f0xx_tim.o
 .comment       0x000000000000001d       0x1e build/obj/./driver/stm32f0/spl/src/stm32f0xx_gpio.o
 .comment       0x000000000000001d       0x1e build/obj/./driver/stm32f0/cmsis/device/system_stm32f0xx.o
 .comment       0x000000000000001d       0x1e build/obj/src/example/example-gpio.opp

.debug_frame    0x0000000000000000     0x1bc4
 .debug_frame   0x0000000000000000      0x5c4 build/obj/./src/timer.opp
 .debug_frame   0x00000000000005c4      0x1cc build/obj/./src/uart.opp
 .debug_frame   0x0000000000000790       0xec build/obj/./src/scheduling.opp
 .debug_frame   0x000000000000087c      0x130 build/obj/./src/gpio.opp
 .debug_frame   0x00000000000009ac      0x2c4 build/obj/./driver/stm32f0/spl/src/stm32f0xx_rcc.o
 .debug_frame   0x0000000000000c70      0x34c build/obj/./driver/stm32f0/spl/src/stm32f0xx_usart.o
 .debug_frame   0x0000000000000fbc      0x698 build/obj/./driver/stm32f0/spl/src/stm32f0xx_tim.o
 .debug_frame   0x0000000000001654      0x108 build/obj/./driver/stm32f0/spl/src/stm32f0xx_gpio.o
 .debug_frame   0x000000000000175c       0x48 build/obj/./driver/stm32f0/cmsis/device/system_stm32f0xx.o
 .debug_frame   0x00000000000017a4       0xac build/obj/src/example/example-gpio.opp
 .debug_frame   0x0000000000001850       0x28 /usr/lib/gcc/arm-none-eabi/8.2.0/../../../../arm-none-eabi/lib/thumb/v6-m/nofp/libstdc++_nano.a(atexit_arm.o)
 .debug_frame   0x0000000000001878       0x28 /usr/lib/gcc/arm-none-eabi/8.2.0/../../../../arm-none-eabi/lib/thumb/v6-m/nofp/libc_nano.a(lib_a-cxa_atexit.o)
 .debug_frame   0x00000000000018a0       0x2c /usr/lib/gcc/arm-none-eabi/8.2.0/../../../../arm-none-eabi/lib/thumb/v6-m/nofp/libc_nano.a(lib_a-init.o)
 .debug_frame   0x00000000000018cc       0x40 /usr/lib/gcc/arm-none-eabi/8.2.0/../../../../arm-none-eabi/lib/thumb/v6-m/nofp/libc_nano.a(lib_a-malloc.o)
 .debug_frame   0x000000000000190c       0x30 /usr/lib/gcc/arm-none-eabi/8.2.0/../../../../arm-none-eabi/lib/thumb/v6-m/nofp/libc_nano.a(lib_a-nano-mallocr.o)
 .debug_frame   0x000000000000193c       0x2c /usr/lib/gcc/arm-none-eabi/8.2.0/../../../../arm-none-eabi/lib/thumb/v6-m/nofp/libc_nano.a(lib_a-sbrkr.o)
 .debug_frame   0x0000000000001968       0x30 /usr/lib/gcc/arm-none-eabi/8.2.0/../../../../arm-none-eabi/lib/thumb/v6-m/nofp/libc_nano.a(lib_a-__atexit.o)
 .debug_frame   0x0000000000001998       0x34 /usr/lib/gcc/arm-none-eabi/8.2.0/../../../../arm-none-eabi/lib/thumb/v6-m/nofp/libc_nano.a(lib_a-__call_atexit.o)
 .debug_frame   0x00000000000019cc      0x140 /usr/lib/gcc/arm-none-eabi/8.2.0/../../../../arm-none-eabi/lib/thumb/v6-m/nofp/libc_nano.a(lib_a-findfp.o)
 .debug_frame   0x0000000000001b0c       0x30 /usr/lib/gcc/arm-none-eabi/8.2.0/../../../../arm-none-eabi/lib/thumb/v6-m/nofp/libc_nano.a(lib_a-mlock.o)
 .debug_frame   0x0000000000001b3c       0x48 /usr/lib/gcc/arm-none-eabi/8.2.0/../../../../arm-none-eabi/lib/thumb/v6-m/nofp/libc_nano.a(lib_a-reent.o)
 .debug_frame   0x0000000000001b84       0x20 /usr/lib/gcc/arm-none-eabi/8.2.0/thumb/v6-m/nofp/libgcc.a(_udivsi3.o)
 .debug_frame   0x0000000000001ba4       0x20 /usr/lib/gcc/arm-none-eabi/8.2.0/../../../../arm-none-eabi/lib/thumb/v6-m/nofp/libnosys.a(sbrk.o)

.debug_loc      0x0000000000000000     0x2e54
 .debug_loc     0x0000000000000000      0x679 build/obj/./driver/stm32f0/spl/src/stm32f0xx_rcc.o
 .debug_loc     0x0000000000000679      0x811 build/obj/./driver/stm32f0/spl/src/stm32f0xx_usart.o
 .debug_loc     0x0000000000000e8a     0x1af2 build/obj/./driver/stm32f0/spl/src/stm32f0xx_tim.o
 .debug_loc     0x000000000000297c      0x3c8 build/obj/./driver/stm32f0/spl/src/stm32f0xx_gpio.o
 .debug_loc     0x0000000000002d44      0x110 build/obj/./driver/stm32f0/cmsis/device/system_stm32f0xx.o

.stabstr        0x0000000000000000      0x1b9
 .stabstr       0x0000000000000000      0x1b9 /usr/lib/gcc/arm-none-eabi/8.2.0/../../../../arm-none-eabi/lib/thumb/v6-m/nofp/libnosys.a(close.o)

Cross Reference Table

Symbol                                            File
ADC1_COMP_IRQHandler                              build/obj/./src/startup/startup_stm32f0.os
ADC_AnalogWatchdogCmd                             build/obj/./driver/stm32f0/spl/src/stm32f0xx_adc.o
ADC_AnalogWatchdogSingleChannelCmd                build/obj/./driver/stm32f0/spl/src/stm32f0xx_adc.o
ADC_AnalogWatchdogSingleChannelConfig             build/obj/./driver/stm32f0/spl/src/stm32f0xx_adc.o
ADC_AnalogWatchdogThresholdsConfig                build/obj/./driver/stm32f0/spl/src/stm32f0xx_adc.o
ADC_AutoPowerOffCmd                               build/obj/./driver/stm32f0/spl/src/stm32f0xx_adc.o
ADC_ChannelConfig                                 build/obj/./driver/stm32f0/spl/src/stm32f0xx_adc.o
                                                  build/obj/./src/adc.opp
ADC_ClearFlag                                     build/obj/./driver/stm32f0/spl/src/stm32f0xx_adc.o
ADC_ClearITPendingBit                             build/obj/./driver/stm32f0/spl/src/stm32f0xx_adc.o
ADC_ClockModeConfig                               build/obj/./driver/stm32f0/spl/src/stm32f0xx_adc.o
                                                  build/obj/./src/adc.opp
ADC_Cmd                                           build/obj/./driver/stm32f0/spl/src/stm32f0xx_adc.o
                                                  build/obj/./src/adc.opp
ADC_ContinuousModeCmd                             build/obj/./driver/stm32f0/spl/src/stm32f0xx_adc.o
ADC_DMACmd                                        build/obj/./driver/stm32f0/spl/src/stm32f0xx_adc.o
                                                  build/obj/./src/adc.opp
ADC_DMARequestModeConfig                          build/obj/./driver/stm32f0/spl/src/stm32f0xx_adc.o
                                                  build/obj/./src/adc.opp
ADC_DeInit                                        build/obj/./driver/stm32f0/spl/src/stm32f0xx_adc.o
ADC_DiscModeCmd                                   build/obj/./driver/stm32f0/spl/src/stm32f0xx_adc.o
ADC_GetCalibrationFactor                          build/obj/./driver/stm32f0/spl/src/stm32f0xx_adc.o
                                                  build/obj/./src/adc.opp
ADC_GetConversionValue                            build/obj/./driver/stm32f0/spl/src/stm32f0xx_adc.o
ADC_GetFlagStatus                                 build/obj/./driver/stm32f0/spl/src/stm32f0xx_adc.o
                                                  build/obj/./src/adc.opp
ADC_GetITStatus                                   build/obj/./driver/stm32f0/spl/src/stm32f0xx_adc.o
ADC_ITConfig                                      build/obj/./driver/stm32f0/spl/src/stm32f0xx_adc.o
ADC_Init                                          build/obj/./driver/stm32f0/spl/src/stm32f0xx_adc.o
ADC_JitterCmd                                     build/obj/./driver/stm32f0/spl/src/stm32f0xx_adc.o
ADC_OverrunModeCmd                                build/obj/./driver/stm32f0/spl/src/stm32f0xx_adc.o
ADC_StartOfConversion                             build/obj/./driver/stm32f0/spl/src/stm32f0xx_adc.o
                                                  build/obj/./src/adc.opp
ADC_StopOfConversion                              build/obj/./driver/stm32f0/spl/src/stm32f0xx_adc.o
ADC_StructInit                                    build/obj/./driver/stm32f0/spl/src/stm32f0xx_adc.o
ADC_TempSensorCmd                                 build/obj/./driver/stm32f0/spl/src/stm32f0xx_adc.o
ADC_VbatCmd                                       build/obj/./driver/stm32f0/spl/src/stm32f0xx_adc.o
ADC_VrefintCmd                                    build/obj/./driver/stm32f0/spl/src/stm32f0xx_adc.o
ADC_WaitModeCmd                                   build/obj/./driver/stm32f0/spl/src/stm32f0xx_adc.o
AHBPrescTable                                     build/obj/./driver/stm32f0/cmsis/device/system_stm32f0xx.o
Adc::_calibrate()                                 build/obj/./src/adc.opp
Adc::_dmaConfig()                                 build/obj/./src/adc.opp
Adc::_enableClock()                               build/obj/./src/adc.opp
Adc::addChannel(unsigned long)                    build/obj/./src/adc.opp
Adc::enable()                                     build/obj/./src/adc.opp
Adc::startConversion()                            build/obj/./src/adc.opp
Adc::update()                                     build/obj/./src/adc.opp
Adc::waitConversion()                             build/obj/./src/adc.opp
AdcChannel::AdcChannel(unsigned char, unsigned char) build/obj/./src/adc.opp
AdcChannel::AdcChannel(unsigned char, unsigned char) build/obj/./src/adc.opp
CAN_CancelTransmit                                build/obj/./driver/stm32f0/spl/src/stm32f0xx_can.o
CAN_ClearFlag                                     build/obj/./driver/stm32f0/spl/src/stm32f0xx_can.o
CAN_ClearITPendingBit                             build/obj/./driver/stm32f0/spl/src/stm32f0xx_can.o
CAN_DBGFreeze                                     build/obj/./driver/stm32f0/spl/src/stm32f0xx_can.o
CAN_DeInit                                        build/obj/./driver/stm32f0/spl/src/stm32f0xx_can.o
CAN_FIFORelease                                   build/obj/./driver/stm32f0/spl/src/stm32f0xx_can.o
CAN_FilterInit                                    build/obj/./driver/stm32f0/spl/src/stm32f0xx_can.o
CAN_GetFlagStatus                                 build/obj/./driver/stm32f0/spl/src/stm32f0xx_can.o
CAN_GetITStatus                                   build/obj/./driver/stm32f0/spl/src/stm32f0xx_can.o
CAN_GetLSBTransmitErrorCounter                    build/obj/./driver/stm32f0/spl/src/stm32f0xx_can.o
CAN_GetLastErrorCode                              build/obj/./driver/stm32f0/spl/src/stm32f0xx_can.o
CAN_GetReceiveErrorCounter                        build/obj/./driver/stm32f0/spl/src/stm32f0xx_can.o
CAN_ITConfig                                      build/obj/./driver/stm32f0/spl/src/stm32f0xx_can.o
CAN_Init                                          build/obj/./driver/stm32f0/spl/src/stm32f0xx_can.o
CAN_MessagePending                                build/obj/./driver/stm32f0/spl/src/stm32f0xx_can.o
CAN_OperatingModeRequest                          build/obj/./driver/stm32f0/spl/src/stm32f0xx_can.o
CAN_Receive                                       build/obj/./driver/stm32f0/spl/src/stm32f0xx_can.o
CAN_SlaveStartBank                                build/obj/./driver/stm32f0/spl/src/stm32f0xx_can.o
CAN_Sleep                                         build/obj/./driver/stm32f0/spl/src/stm32f0xx_can.o
CAN_StructInit                                    build/obj/./driver/stm32f0/spl/src/stm32f0xx_can.o
CAN_TTComModeCmd                                  build/obj/./driver/stm32f0/spl/src/stm32f0xx_can.o
CAN_Transmit                                      build/obj/./driver/stm32f0/spl/src/stm32f0xx_can.o
CAN_TransmitStatus                                build/obj/./driver/stm32f0/spl/src/stm32f0xx_can.o
CAN_WakeUp                                        build/obj/./driver/stm32f0/spl/src/stm32f0xx_can.o
CEC_CAN_IRQHandler                                build/obj/./src/startup/startup_stm32f0.os
CEC_ClearFlag                                     build/obj/./driver/stm32f0/spl/src/stm32f0xx_cec.o
CEC_ClearITPendingBit                             build/obj/./driver/stm32f0/spl/src/stm32f0xx_cec.o
CEC_Cmd                                           build/obj/./driver/stm32f0/spl/src/stm32f0xx_cec.o
CEC_DeInit                                        build/obj/./driver/stm32f0/spl/src/stm32f0xx_cec.o
CEC_EndOfMessage                                  build/obj/./driver/stm32f0/spl/src/stm32f0xx_cec.o
CEC_GetFlagStatus                                 build/obj/./driver/stm32f0/spl/src/stm32f0xx_cec.o
CEC_GetITStatus                                   build/obj/./driver/stm32f0/spl/src/stm32f0xx_cec.o
CEC_ITConfig                                      build/obj/./driver/stm32f0/spl/src/stm32f0xx_cec.o
CEC_Init                                          build/obj/./driver/stm32f0/spl/src/stm32f0xx_cec.o
CEC_ListenModeCmd                                 build/obj/./driver/stm32f0/spl/src/stm32f0xx_cec.o
CEC_OwnAddressClear                               build/obj/./driver/stm32f0/spl/src/stm32f0xx_cec.o
CEC_OwnAddressConfig                              build/obj/./driver/stm32f0/spl/src/stm32f0xx_cec.o
CEC_ReceiveData                                   build/obj/./driver/stm32f0/spl/src/stm32f0xx_cec.o
CEC_SendData                                      build/obj/./driver/stm32f0/spl/src/stm32f0xx_cec.o
CEC_StartOfMessage                                build/obj/./driver/stm32f0/spl/src/stm32f0xx_cec.o
CEC_StructInit                                    build/obj/./driver/stm32f0/spl/src/stm32f0xx_cec.o
COMP_Cmd                                          build/obj/./driver/stm32f0/spl/src/stm32f0xx_comp.o
COMP_DeInit                                       build/obj/./driver/stm32f0/spl/src/stm32f0xx_comp.o
COMP_GetOutputLevel                               build/obj/./driver/stm32f0/spl/src/stm32f0xx_comp.o
COMP_Init                                         build/obj/./driver/stm32f0/spl/src/stm32f0xx_comp.o
COMP_LockConfig                                   build/obj/./driver/stm32f0/spl/src/stm32f0xx_comp.o
COMP_StructInit                                   build/obj/./driver/stm32f0/spl/src/stm32f0xx_comp.o
COMP_SwitchCmd                                    build/obj/./driver/stm32f0/spl/src/stm32f0xx_comp.o
COMP_WindowCmd                                    build/obj/./driver/stm32f0/spl/src/stm32f0xx_comp.o
CRC_CalcBlockCRC                                  build/obj/./driver/stm32f0/spl/src/stm32f0xx_crc.o
CRC_CalcCRC                                       build/obj/./driver/stm32f0/spl/src/stm32f0xx_crc.o
CRC_CalcCRC16bits                                 build/obj/./driver/stm32f0/spl/src/stm32f0xx_crc.o
CRC_CalcCRC8bits                                  build/obj/./driver/stm32f0/spl/src/stm32f0xx_crc.o
CRC_DeInit                                        build/obj/./driver/stm32f0/spl/src/stm32f0xx_crc.o
CRC_GetCRC                                        build/obj/./driver/stm32f0/spl/src/stm32f0xx_crc.o
CRC_GetIDRegister                                 build/obj/./driver/stm32f0/spl/src/stm32f0xx_crc.o
CRC_PolynomialSizeSelect                          build/obj/./driver/stm32f0/spl/src/stm32f0xx_crc.o
CRC_ResetDR                                       build/obj/./driver/stm32f0/spl/src/stm32f0xx_crc.o
CRC_ReverseInputDataSelect                        build/obj/./driver/stm32f0/spl/src/stm32f0xx_crc.o
                                                  build/obj/./src/crc.opp
CRC_ReverseOutputDataCmd                          build/obj/./driver/stm32f0/spl/src/stm32f0xx_crc.o
                                                  build/obj/./src/crc.opp
CRC_SetIDRegister                                 build/obj/./driver/stm32f0/spl/src/stm32f0xx_crc.o
CRC_SetInitRegister                               build/obj/./driver/stm32f0/spl/src/stm32f0xx_crc.o
CRC_SetPolynomial                                 build/obj/./driver/stm32f0/spl/src/stm32f0xx_crc.o
CRS_AdjustHSI48CalibrationValue                   build/obj/./driver/stm32f0/spl/src/stm32f0xx_crs.o
CRS_AutomaticCalibrationCmd                       build/obj/./driver/stm32f0/spl/src/stm32f0xx_crs.o
CRS_ClearFlag                                     build/obj/./driver/stm32f0/spl/src/stm32f0xx_crs.o
CRS_ClearITPendingBit                             build/obj/./driver/stm32f0/spl/src/stm32f0xx_crs.o
CRS_DeInit                                        build/obj/./driver/stm32f0/spl/src/stm32f0xx_crs.o
CRS_FrequencyErrorCounterCmd                      build/obj/./driver/stm32f0/spl/src/stm32f0xx_crs.o
CRS_FrequencyErrorCounterReload                   build/obj/./driver/stm32f0/spl/src/stm32f0xx_crs.o
CRS_FrequencyErrorLimitConfig                     build/obj/./driver/stm32f0/spl/src/stm32f0xx_crs.o
CRS_GetFlagStatus                                 build/obj/./driver/stm32f0/spl/src/stm32f0xx_crs.o
CRS_GetFrequencyErrorDirection                    build/obj/./driver/stm32f0/spl/src/stm32f0xx_crs.o
CRS_GetFrequencyErrorValue                        build/obj/./driver/stm32f0/spl/src/stm32f0xx_crs.o
CRS_GetHSI48CalibrationValue                      build/obj/./driver/stm32f0/spl/src/stm32f0xx_crs.o
CRS_GetITStatus                                   build/obj/./driver/stm32f0/spl/src/stm32f0xx_crs.o
CRS_GetReloadValue                                build/obj/./driver/stm32f0/spl/src/stm32f0xx_crs.o
CRS_ITConfig                                      build/obj/./driver/stm32f0/spl/src/stm32f0xx_crs.o
CRS_SoftwareSynchronizationGenerate               build/obj/./driver/stm32f0/spl/src/stm32f0xx_crs.o
CRS_SynchronizationPolarityConfig                 build/obj/./driver/stm32f0/spl/src/stm32f0xx_crs.o
CRS_SynchronizationPrescalerConfig                build/obj/./driver/stm32f0/spl/src/stm32f0xx_crs.o
CRS_SynchronizationSourceConfig                   build/obj/./driver/stm32f0/spl/src/stm32f0xx_crs.o
DAC_ClearFlag                                     build/obj/./driver/stm32f0/spl/src/stm32f0xx_dac.o
DAC_ClearITPendingBit                             build/obj/./driver/stm32f0/spl/src/stm32f0xx_dac.o
DAC_Cmd                                           build/obj/./driver/stm32f0/spl/src/stm32f0xx_dac.o
DAC_DMACmd                                        build/obj/./driver/stm32f0/spl/src/stm32f0xx_dac.o
DAC_DeInit                                        build/obj/./driver/stm32f0/spl/src/stm32f0xx_dac.o
DAC_DualSoftwareTriggerCmd                        build/obj/./driver/stm32f0/spl/src/stm32f0xx_dac.o
DAC_GetDataOutputValue                            build/obj/./driver/stm32f0/spl/src/stm32f0xx_dac.o
DAC_GetFlagStatus                                 build/obj/./driver/stm32f0/spl/src/stm32f0xx_dac.o
DAC_GetITStatus                                   build/obj/./driver/stm32f0/spl/src/stm32f0xx_dac.o
DAC_ITConfig                                      build/obj/./driver/stm32f0/spl/src/stm32f0xx_dac.o
DAC_Init                                          build/obj/./driver/stm32f0/spl/src/stm32f0xx_dac.o
DAC_SetChannel1Data                               build/obj/./driver/stm32f0/spl/src/stm32f0xx_dac.o
DAC_SetChannel2Data                               build/obj/./driver/stm32f0/spl/src/stm32f0xx_dac.o
DAC_SetDualChannelData                            build/obj/./driver/stm32f0/spl/src/stm32f0xx_dac.o
DAC_SoftwareTriggerCmd                            build/obj/./driver/stm32f0/spl/src/stm32f0xx_dac.o
DAC_StructInit                                    build/obj/./driver/stm32f0/spl/src/stm32f0xx_dac.o
DAC_WaveGenerationCmd                             build/obj/./driver/stm32f0/spl/src/stm32f0xx_dac.o
DBGMCU_APB1PeriphConfig                           build/obj/./driver/stm32f0/spl/src/stm32f0xx_dbgmcu.o
DBGMCU_APB2PeriphConfig                           build/obj/./driver/stm32f0/spl/src/stm32f0xx_dbgmcu.o
DBGMCU_Config                                     build/obj/./driver/stm32f0/spl/src/stm32f0xx_dbgmcu.o
DBGMCU_GetDEVID                                   build/obj/./driver/stm32f0/spl/src/stm32f0xx_dbgmcu.o
DBGMCU_GetREVID                                   build/obj/./driver/stm32f0/spl/src/stm32f0xx_dbgmcu.o
DMA1_Channel1_IRQHandler                          build/obj/./src/startup/startup_stm32f0.os
DMA1_Channel2_3_IRQHandler                        build/obj/./src/startup/startup_stm32f0.os
DMA1_Channel4_5_IRQHandler                        build/obj/./src/startup/startup_stm32f0.os
DMA_ClearFlag                                     build/obj/./driver/stm32f0/spl/src/stm32f0xx_dma.o
                                                  build/obj/./src/adc.opp
DMA_ClearITPendingBit                             build/obj/./driver/stm32f0/spl/src/stm32f0xx_dma.o
DMA_Cmd                                           build/obj/./driver/stm32f0/spl/src/stm32f0xx_dma.o
                                                  build/obj/./src/adc.opp
DMA_DeInit                                        build/obj/./driver/stm32f0/spl/src/stm32f0xx_dma.o
DMA_GetCurrDataCounter                            build/obj/./driver/stm32f0/spl/src/stm32f0xx_dma.o
DMA_GetFlagStatus                                 build/obj/./driver/stm32f0/spl/src/stm32f0xx_dma.o
                                                  build/obj/./src/adc.opp
DMA_GetITStatus                                   build/obj/./driver/stm32f0/spl/src/stm32f0xx_dma.o
DMA_ITConfig                                      build/obj/./driver/stm32f0/spl/src/stm32f0xx_dma.o
DMA_Init                                          build/obj/./driver/stm32f0/spl/src/stm32f0xx_dma.o
                                                  build/obj/./src/adc.opp
DMA_RemapConfig                                   build/obj/./driver/stm32f0/spl/src/stm32f0xx_dma.o
DMA_SetCurrDataCounter                            build/obj/./driver/stm32f0/spl/src/stm32f0xx_dma.o
DMA_StructInit                                    build/obj/./driver/stm32f0/spl/src/stm32f0xx_dma.o
Default_Handler                                   build/obj/./src/startup/startup_stm32f0.os
Delay(unsigned long)                              build/obj/./src/scheduling.opp
DigitalLPF<float>::DigitalLPF()                   build/obj/./src/LowPassFilter.opp
DigitalLPF<float>::DigitalLPF()                   build/obj/./src/LowPassFilter.opp
DigitalLPF<float>::apply(float const&)            build/obj/./src/LowPassFilter.opp
DigitalLPF<float>::apply(float const&, float, float) build/obj/./src/LowPassFilter.opp
DigitalLPF<float>::compute_alpha(float, float)    build/obj/./src/LowPassFilter.opp
DigitalLPF<float>::get() const                    build/obj/./src/LowPassFilter.opp
DigitalLPF<float>::reset(float)                   build/obj/./src/LowPassFilter.opp
DigitalLPF<int>::DigitalLPF()                     build/obj/./src/LowPassFilter.opp
DigitalLPF<int>::DigitalLPF()                     build/obj/./src/LowPassFilter.opp
DigitalLPF<int>::apply(int const&)                build/obj/./src/LowPassFilter.opp
DigitalLPF<int>::apply(int const&, float, float)  build/obj/./src/LowPassFilter.opp
DigitalLPF<int>::compute_alpha(float, float)      build/obj/./src/LowPassFilter.opp
DigitalLPF<int>::get() const                      build/obj/./src/LowPassFilter.opp
DigitalLPF<int>::reset(int)                       build/obj/./src/LowPassFilter.opp
DigitalLPF<long>::DigitalLPF()                    build/obj/./src/LowPassFilter.opp
DigitalLPF<long>::DigitalLPF()                    build/obj/./src/LowPassFilter.opp
DigitalLPF<long>::apply(long const&)              build/obj/./src/LowPassFilter.opp
DigitalLPF<long>::apply(long const&, float, float) build/obj/./src/LowPassFilter.opp
DigitalLPF<long>::compute_alpha(float, float)     build/obj/./src/LowPassFilter.opp
DigitalLPF<long>::get() const                     build/obj/./src/LowPassFilter.opp
DigitalLPF<long>::reset(long)                     build/obj/./src/LowPassFilter.opp
Dma::Dma(DMA_Channel_TypeDef*)                    build/obj/./src/adc.opp
Dma::Dma(DMA_Channel_TypeDef*)                    build/obj/./src/adc.opp
Dma::_clockEnable()                               build/obj/./src/adc.opp
Dma::init(unsigned long, unsigned long, unsigned long, unsigned long, unsigned long, unsigned long, unsigned long, unsigned long, unsigned long, unsigned long, unsigned long) build/obj/./src/adc.opp
Dma::setEnabled(FunctionalState)                  build/obj/./src/adc.opp
EXTI0_1_IRQHandler                                build/obj/./src/startup/startup_stm32f0.os
EXTI2_3_IRQHandler                                build/obj/./src/startup/startup_stm32f0.os
EXTI4_15_IRQHandler                               build/obj/./src/startup/startup_stm32f0.os
EXTI_ClearFlag                                    build/obj/./driver/stm32f0/spl/src/stm32f0xx_exti.o
EXTI_ClearITPendingBit                            build/obj/./driver/stm32f0/spl/src/stm32f0xx_exti.o
EXTI_DeInit                                       build/obj/./driver/stm32f0/spl/src/stm32f0xx_exti.o
EXTI_GenerateSWInterrupt                          build/obj/./driver/stm32f0/spl/src/stm32f0xx_exti.o
EXTI_GetFlagStatus                                build/obj/./driver/stm32f0/spl/src/stm32f0xx_exti.o
EXTI_GetITStatus                                  build/obj/./driver/stm32f0/spl/src/stm32f0xx_exti.o
EXTI_Init                                         build/obj/./driver/stm32f0/spl/src/stm32f0xx_exti.o
EXTI_StructInit                                   build/obj/./driver/stm32f0/spl/src/stm32f0xx_exti.o
FLASH_ClearFlag                                   build/obj/./driver/stm32f0/spl/src/stm32f0xx_flash.o
                                                  build/obj/./src/flash.opp
FLASH_EraseAllPages                               build/obj/./driver/stm32f0/spl/src/stm32f0xx_flash.o
FLASH_ErasePage                                   build/obj/./driver/stm32f0/spl/src/stm32f0xx_flash.o
                                                  build/obj/./src/flash.opp
FLASH_GetFlagStatus                               build/obj/./driver/stm32f0/spl/src/stm32f0xx_flash.o
FLASH_GetPrefetchBufferStatus                     build/obj/./driver/stm32f0/spl/src/stm32f0xx_flash.o
FLASH_GetStatus                                   build/obj/./driver/stm32f0/spl/src/stm32f0xx_flash.o
                                                  build/obj/./src/flash.opp
FLASH_IRQHandler                                  build/obj/./src/startup/startup_stm32f0.os
FLASH_ITConfig                                    build/obj/./driver/stm32f0/spl/src/stm32f0xx_flash.o
FLASH_Lock                                        build/obj/./driver/stm32f0/spl/src/stm32f0xx_flash.o
                                                  build/obj/./src/flash.opp
FLASH_OB_BOOT0Config                              build/obj/./driver/stm32f0/spl/src/stm32f0xx_flash.o
FLASH_OB_BOOT0SWConfig                            build/obj/./driver/stm32f0/spl/src/stm32f0xx_flash.o
FLASH_OB_BOOTConfig                               build/obj/./driver/stm32f0/spl/src/stm32f0xx_flash.o
FLASH_OB_EnableWRP                                build/obj/./driver/stm32f0/spl/src/stm32f0xx_flash.o
FLASH_OB_Erase                                    build/obj/./driver/stm32f0/spl/src/stm32f0xx_flash.o
FLASH_OB_GetRDP                                   build/obj/./driver/stm32f0/spl/src/stm32f0xx_flash.o
FLASH_OB_GetUser                                  build/obj/./driver/stm32f0/spl/src/stm32f0xx_flash.o
FLASH_OB_GetWRP                                   build/obj/./driver/stm32f0/spl/src/stm32f0xx_flash.o
FLASH_OB_Launch                                   build/obj/./driver/stm32f0/spl/src/stm32f0xx_flash.o
FLASH_OB_Lock                                     build/obj/./driver/stm32f0/spl/src/stm32f0xx_flash.o
FLASH_OB_ProgramData                              build/obj/./driver/stm32f0/spl/src/stm32f0xx_flash.o
FLASH_OB_RDPConfig                                build/obj/./driver/stm32f0/spl/src/stm32f0xx_flash.o
FLASH_OB_SRAMParityConfig                         build/obj/./driver/stm32f0/spl/src/stm32f0xx_flash.o
FLASH_OB_Unlock                                   build/obj/./driver/stm32f0/spl/src/stm32f0xx_flash.o
FLASH_OB_UserConfig                               build/obj/./driver/stm32f0/spl/src/stm32f0xx_flash.o
FLASH_OB_VDDAConfig                               build/obj/./driver/stm32f0/spl/src/stm32f0xx_flash.o
FLASH_OB_WriteUser                                build/obj/./driver/stm32f0/spl/src/stm32f0xx_flash.o
FLASH_PrefetchBufferCmd                           build/obj/./driver/stm32f0/spl/src/stm32f0xx_flash.o
FLASH_ProgramHalfWord                             build/obj/./driver/stm32f0/spl/src/stm32f0xx_flash.o
                                                  build/obj/./src/flash.opp
FLASH_ProgramWord                                 build/obj/./driver/stm32f0/spl/src/stm32f0xx_flash.o
FLASH_SetLatency                                  build/obj/./driver/stm32f0/spl/src/stm32f0xx_flash.o
FLASH_Unlock                                      build/obj/./driver/stm32f0/spl/src/stm32f0xx_flash.o
                                                  build/obj/./src/flash.opp
FLASH_WaitForLastOperation                        build/obj/./driver/stm32f0/spl/src/stm32f0xx_flash.o
Flash::available()                                build/obj/./src/flash.opp
Flash::currentBlock()                             build/obj/./src/flash.opp
Flash::erase()                                    build/obj/./src/flash.opp
Flash::init()                                     build/obj/./src/flash.opp
Flash::printBlock(unsigned short*)                build/obj/./src/flash.opp
Flash::printContents()                            build/obj/./src/flash.opp
Flash::readBlock(unsigned short*, unsigned char)  build/obj/./src/flash.opp
Flash::verifyChecksum()                           build/obj/./src/flash.opp
Flash::writeBlock(unsigned short*, unsigned char) build/obj/./src/flash.opp
GPIO_DeInit                                       build/obj/./driver/stm32f0/spl/src/stm32f0xx_gpio.o
GPIO_Init                                         build/obj/./driver/stm32f0/spl/src/stm32f0xx_gpio.o
                                                  build/obj/./src/gpio.opp
GPIO_PinAFConfig                                  build/obj/./driver/stm32f0/spl/src/stm32f0xx_gpio.o
                                                  build/obj/./src/gpio.opp
GPIO_PinLockConfig                                build/obj/./driver/stm32f0/spl/src/stm32f0xx_gpio.o
GPIO_ReadInputData                                build/obj/./driver/stm32f0/spl/src/stm32f0xx_gpio.o
GPIO_ReadInputDataBit                             build/obj/./driver/stm32f0/spl/src/stm32f0xx_gpio.o
GPIO_ReadOutputData                               build/obj/./driver/stm32f0/spl/src/stm32f0xx_gpio.o
GPIO_ReadOutputDataBit                            build/obj/./driver/stm32f0/spl/src/stm32f0xx_gpio.o
GPIO_ResetBits                                    build/obj/./driver/stm32f0/spl/src/stm32f0xx_gpio.o
GPIO_SetBits                                      build/obj/./driver/stm32f0/spl/src/stm32f0xx_gpio.o
GPIO_StructInit                                   build/obj/./driver/stm32f0/spl/src/stm32f0xx_gpio.o
GPIO_Write                                        build/obj/./driver/stm32f0/spl/src/stm32f0xx_gpio.o
GPIO_WriteBit                                     build/obj/./driver/stm32f0/spl/src/stm32f0xx_gpio.o
Gpio::Gpio(GPIO_TypeDef*, unsigned short)         build/obj/./src/gpio.opp
                                                  build/obj/src/example/example-gpio.opp
                                                  build/obj/./src/adc.opp
Gpio::Gpio(GPIO_TypeDef*, unsigned short)         build/obj/./src/gpio.opp
Gpio::_clockEnable()                              build/obj/./src/gpio.opp
Gpio::configAF(unsigned char)                     build/obj/./src/gpio.opp
Gpio::init(GPIOMode_TypeDef, GPIOPuPd_TypeDef, GPIOOType_TypeDef, GPIOSpeed_TypeDef) build/obj/./src/gpio.opp
                                                  build/obj/src/example/example-gpio.opp
                                                  build/obj/./src/adc.opp
Gpio::readInput()                                 build/obj/./src/gpio.opp
Gpio::readOutput()                                build/obj/./src/gpio.opp
Gpio::reset()                                     build/obj/./src/gpio.opp
Gpio::set(bool)                                   build/obj/./src/gpio.opp
Gpio::toggle()                                    build/obj/./src/gpio.opp
                                                  build/obj/src/example/example-gpio.opp
HardFault_Handler                                 build/obj/./src/startup/startup_stm32f0.os
I2C1_IRQHandler                                   build/obj/./src/startup/startup_stm32f0.os
I2C2_IRQHandler                                   build/obj/./src/startup/startup_stm32f0.os
I2C_10BitAddressHeaderCmd                         build/obj/./driver/stm32f0/spl/src/stm32f0xx_i2c.o
I2C_10BitAddressingModeCmd                        build/obj/./driver/stm32f0/spl/src/stm32f0xx_i2c.o
I2C_AcknowledgeConfig                             build/obj/./driver/stm32f0/spl/src/stm32f0xx_i2c.o
I2C_AutoEndCmd                                    build/obj/./driver/stm32f0/spl/src/stm32f0xx_i2c.o
I2C_CalculatePEC                                  build/obj/./driver/stm32f0/spl/src/stm32f0xx_i2c.o
I2C_ClearFlag                                     build/obj/./driver/stm32f0/spl/src/stm32f0xx_i2c.o
I2C_ClearITPendingBit                             build/obj/./driver/stm32f0/spl/src/stm32f0xx_i2c.o
I2C_ClockTimeoutCmd                               build/obj/./driver/stm32f0/spl/src/stm32f0xx_i2c.o
I2C_Cmd                                           build/obj/./driver/stm32f0/spl/src/stm32f0xx_i2c.o
I2C_DMACmd                                        build/obj/./driver/stm32f0/spl/src/stm32f0xx_i2c.o
I2C_DeInit                                        build/obj/./driver/stm32f0/spl/src/stm32f0xx_i2c.o
I2C_DualAddressCmd                                build/obj/./driver/stm32f0/spl/src/stm32f0xx_i2c.o
I2C_ExtendedClockTimeoutCmd                       build/obj/./driver/stm32f0/spl/src/stm32f0xx_i2c.o
I2C_GeneralCallCmd                                build/obj/./driver/stm32f0/spl/src/stm32f0xx_i2c.o
I2C_GenerateSTART                                 build/obj/./driver/stm32f0/spl/src/stm32f0xx_i2c.o
I2C_GenerateSTOP                                  build/obj/./driver/stm32f0/spl/src/stm32f0xx_i2c.o
I2C_GetAddressMatched                             build/obj/./driver/stm32f0/spl/src/stm32f0xx_i2c.o
I2C_GetFlagStatus                                 build/obj/./driver/stm32f0/spl/src/stm32f0xx_i2c.o
I2C_GetITStatus                                   build/obj/./driver/stm32f0/spl/src/stm32f0xx_i2c.o
I2C_GetPEC                                        build/obj/./driver/stm32f0/spl/src/stm32f0xx_i2c.o
I2C_GetTransferDirection                          build/obj/./driver/stm32f0/spl/src/stm32f0xx_i2c.o
I2C_ITConfig                                      build/obj/./driver/stm32f0/spl/src/stm32f0xx_i2c.o
I2C_IdleClockTimeoutCmd                           build/obj/./driver/stm32f0/spl/src/stm32f0xx_i2c.o
I2C_Init                                          build/obj/./driver/stm32f0/spl/src/stm32f0xx_i2c.o
I2C_MasterRequestConfig                           build/obj/./driver/stm32f0/spl/src/stm32f0xx_i2c.o
I2C_NumberOfBytesConfig                           build/obj/./driver/stm32f0/spl/src/stm32f0xx_i2c.o
I2C_OwnAddress2Config                             build/obj/./driver/stm32f0/spl/src/stm32f0xx_i2c.o
I2C_PECRequestCmd                                 build/obj/./driver/stm32f0/spl/src/stm32f0xx_i2c.o
I2C_ReadRegister                                  build/obj/./driver/stm32f0/spl/src/stm32f0xx_i2c.o
I2C_ReceiveData                                   build/obj/./driver/stm32f0/spl/src/stm32f0xx_i2c.o
I2C_ReloadCmd                                     build/obj/./driver/stm32f0/spl/src/stm32f0xx_i2c.o
I2C_SMBusAlertCmd                                 build/obj/./driver/stm32f0/spl/src/stm32f0xx_i2c.o
I2C_SendData                                      build/obj/./driver/stm32f0/spl/src/stm32f0xx_i2c.o
I2C_SlaveAddressConfig                            build/obj/./driver/stm32f0/spl/src/stm32f0xx_i2c.o
I2C_SlaveByteControlCmd                           build/obj/./driver/stm32f0/spl/src/stm32f0xx_i2c.o
I2C_SoftwareResetCmd                              build/obj/./driver/stm32f0/spl/src/stm32f0xx_i2c.o
I2C_StopModeCmd                                   build/obj/./driver/stm32f0/spl/src/stm32f0xx_i2c.o
I2C_StretchClockCmd                               build/obj/./driver/stm32f0/spl/src/stm32f0xx_i2c.o
I2C_StructInit                                    build/obj/./driver/stm32f0/spl/src/stm32f0xx_i2c.o
I2C_TimeoutAConfig                                build/obj/./driver/stm32f0/spl/src/stm32f0xx_i2c.o
I2C_TimeoutBConfig                                build/obj/./driver/stm32f0/spl/src/stm32f0xx_i2c.o
I2C_TransferHandling                              build/obj/./driver/stm32f0/spl/src/stm32f0xx_i2c.o
I2S_Cmd                                           build/obj/./driver/stm32f0/spl/src/stm32f0xx_spi.o
I2S_Init                                          build/obj/./driver/stm32f0/spl/src/stm32f0xx_spi.o
I2S_StructInit                                    build/obj/./driver/stm32f0/spl/src/stm32f0xx_spi.o
IWDG_Enable                                       build/obj/./driver/stm32f0/spl/src/stm32f0xx_iwdg.o
IWDG_GetFlagStatus                                build/obj/./driver/stm32f0/spl/src/stm32f0xx_iwdg.o
IWDG_ReloadCounter                                build/obj/./driver/stm32f0/spl/src/stm32f0xx_iwdg.o
IWDG_SetPrescaler                                 build/obj/./driver/stm32f0/spl/src/stm32f0xx_iwdg.o
IWDG_SetReload                                    build/obj/./driver/stm32f0/spl/src/stm32f0xx_iwdg.o
IWDG_SetWindowValue                               build/obj/./driver/stm32f0/spl/src/stm32f0xx_iwdg.o
IWDG_WriteAccessCmd                               build/obj/./driver/stm32f0/spl/src/stm32f0xx_iwdg.o
LowPassFilter<float>::LowPassFilter()             build/obj/./src/LowPassFilter.opp
LowPassFilter<float>::LowPassFilter()             build/obj/./src/LowPassFilter.opp
LowPassFilter<float>::LowPassFilter(float)        build/obj/./src/LowPassFilter.opp
LowPassFilter<float>::LowPassFilter(float)        build/obj/./src/LowPassFilter.opp
LowPassFilter<float>::LowPassFilter(float, float) build/obj/./src/LowPassFilter.opp
LowPassFilter<float>::LowPassFilter(float, float) build/obj/./src/LowPassFilter.opp
LowPassFilter<float>::apply(float)                build/obj/./src/LowPassFilter.opp
LowPassFilter<float>::apply(float, float)         build/obj/./src/LowPassFilter.opp
LowPassFilter<float>::get() const                 build/obj/./src/LowPassFilter.opp
LowPassFilter<float>::get_cutoff_freq() const     build/obj/./src/LowPassFilter.opp
LowPassFilter<float>::reset()                     build/obj/./src/LowPassFilter.opp
LowPassFilter<float>::reset(float)                build/obj/./src/LowPassFilter.opp
LowPassFilter<float>::set_cutoff_frequency(float) build/obj/./src/LowPassFilter.opp
LowPassFilter<float>::set_cutoff_frequency(float, float) build/obj/./src/LowPassFilter.opp
LowPassFilter<int>::LowPassFilter()               build/obj/./src/LowPassFilter.opp
LowPassFilter<int>::LowPassFilter()               build/obj/./src/LowPassFilter.opp
LowPassFilter<int>::LowPassFilter(float)          build/obj/./src/LowPassFilter.opp
LowPassFilter<int>::LowPassFilter(float)          build/obj/./src/LowPassFilter.opp
LowPassFilter<int>::LowPassFilter(float, float)   build/obj/./src/LowPassFilter.opp
LowPassFilter<int>::LowPassFilter(float, float)   build/obj/./src/LowPassFilter.opp
LowPassFilter<int>::apply(int)                    build/obj/./src/LowPassFilter.opp
LowPassFilter<int>::apply(int, float)             build/obj/./src/LowPassFilter.opp
LowPassFilter<int>::get() const                   build/obj/./src/LowPassFilter.opp
LowPassFilter<int>::get_cutoff_freq() const       build/obj/./src/LowPassFilter.opp
LowPassFilter<int>::reset()                       build/obj/./src/LowPassFilter.opp
LowPassFilter<int>::reset(int)                    build/obj/./src/LowPassFilter.opp
LowPassFilter<int>::set_cutoff_frequency(float)   build/obj/./src/LowPassFilter.opp
LowPassFilter<int>::set_cutoff_frequency(float, float) build/obj/./src/LowPassFilter.opp
LowPassFilter<long>::LowPassFilter()              build/obj/./src/LowPassFilter.opp
LowPassFilter<long>::LowPassFilter()              build/obj/./src/LowPassFilter.opp
LowPassFilter<long>::LowPassFilter(float)         build/obj/./src/LowPassFilter.opp
LowPassFilter<long>::LowPassFilter(float)         build/obj/./src/LowPassFilter.opp
LowPassFilter<long>::LowPassFilter(float, float)  build/obj/./src/LowPassFilter.opp
LowPassFilter<long>::LowPassFilter(float, float)  build/obj/./src/LowPassFilter.opp
LowPassFilter<long>::apply(long)                  build/obj/./src/LowPassFilter.opp
LowPassFilter<long>::apply(long, float)           build/obj/./src/LowPassFilter.opp
LowPassFilter<long>::get() const                  build/obj/./src/LowPassFilter.opp
LowPassFilter<long>::get_cutoff_freq() const      build/obj/./src/LowPassFilter.opp
LowPassFilter<long>::reset()                      build/obj/./src/LowPassFilter.opp
LowPassFilter<long>::reset(long)                  build/obj/./src/LowPassFilter.opp
LowPassFilter<long>::set_cutoff_frequency(float)  build/obj/./src/LowPassFilter.opp
LowPassFilter<long>::set_cutoff_frequency(float, float) build/obj/./src/LowPassFilter.opp
MicroSeconds                                      build/obj/./src/scheduling.opp
NMI_Handler                                       build/obj/./src/startup/startup_stm32f0.os
NVIC_Init                                         build/obj/./driver/stm32f0/spl/src/stm32f0xx_misc.o
                                                  build/obj/./src/helpers.opp
NVIC_SystemLPConfig                               build/obj/./driver/stm32f0/spl/src/stm32f0xx_misc.o
PVD_IRQHandler                                    build/obj/./src/startup/startup_stm32f0.os
PWR_BackupAccessCmd                               build/obj/./driver/stm32f0/spl/src/stm32f0xx_pwr.o
PWR_ClearFlag                                     build/obj/./driver/stm32f0/spl/src/stm32f0xx_pwr.o
PWR_DeInit                                        build/obj/./driver/stm32f0/spl/src/stm32f0xx_pwr.o
PWR_EnterSTANDBYMode                              build/obj/./driver/stm32f0/spl/src/stm32f0xx_pwr.o
PWR_EnterSTOPMode                                 build/obj/./driver/stm32f0/spl/src/stm32f0xx_pwr.o
PWR_EnterSleepMode                                build/obj/./driver/stm32f0/spl/src/stm32f0xx_pwr.o
PWR_GetFlagStatus                                 build/obj/./driver/stm32f0/spl/src/stm32f0xx_pwr.o
PWR_PVDCmd                                        build/obj/./driver/stm32f0/spl/src/stm32f0xx_pwr.o
PWR_PVDLevelConfig                                build/obj/./driver/stm32f0/spl/src/stm32f0xx_pwr.o
PWR_WakeUpPinCmd                                  build/obj/./driver/stm32f0/spl/src/stm32f0xx_pwr.o
PendSV_Handler                                    build/obj/./src/startup/startup_stm32f0.os
RCC_ADCCLKConfig                                  build/obj/./driver/stm32f0/spl/src/stm32f0xx_rcc.o
RCC_AHBPeriphClockCmd                             build/obj/./driver/stm32f0/spl/src/stm32f0xx_rcc.o
                                                  build/obj/./src/gpio.opp
                                                  build/obj/./src/crc.opp
                                                  build/obj/./src/adc.opp
RCC_AHBPeriphResetCmd                             build/obj/./driver/stm32f0/spl/src/stm32f0xx_rcc.o
                                                  build/obj/./driver/stm32f0/spl/src/stm32f0xx_gpio.o
RCC_APB1PeriphClockCmd                            build/obj/./driver/stm32f0/spl/src/stm32f0xx_rcc.o
                                                  build/obj/./src/timer.opp
RCC_APB1PeriphResetCmd                            build/obj/./driver/stm32f0/spl/src/stm32f0xx_rcc.o
                                                  build/obj/./driver/stm32f0/spl/src/stm32f0xx_spi.o
                                                  build/obj/./driver/stm32f0/spl/src/stm32f0xx_tim.o
                                                  build/obj/./driver/stm32f0/spl/src/stm32f0xx_wwdg.o
                                                  build/obj/./driver/stm32f0/spl/src/stm32f0xx_cec.o
                                                  build/obj/./driver/stm32f0/spl/src/stm32f0xx_usart.o
                                                  build/obj/./driver/stm32f0/spl/src/stm32f0xx_crs.o
                                                  build/obj/./driver/stm32f0/spl/src/stm32f0xx_i2c.o
                                                  build/obj/./driver/stm32f0/spl/src/stm32f0xx_pwr.o
                                                  build/obj/./driver/stm32f0/spl/src/stm32f0xx_can.o
                                                  build/obj/./driver/stm32f0/spl/src/stm32f0xx_dac.o
RCC_APB2PeriphClockCmd                            build/obj/./driver/stm32f0/spl/src/stm32f0xx_rcc.o
                                                  build/obj/./src/uart.opp
                                                  build/obj/./src/adc.opp
                                                  build/obj/./src/timer.opp
RCC_APB2PeriphResetCmd                            build/obj/./driver/stm32f0/spl/src/stm32f0xx_rcc.o
                                                  build/obj/./driver/stm32f0/spl/src/stm32f0xx_spi.o
                                                  build/obj/./driver/stm32f0/spl/src/stm32f0xx_tim.o
                                                  build/obj/./driver/stm32f0/spl/src/stm32f0xx_adc.o
                                                  build/obj/./driver/stm32f0/spl/src/stm32f0xx_usart.o
RCC_AdjustHSI14CalibrationValue                   build/obj/./driver/stm32f0/spl/src/stm32f0xx_rcc.o
RCC_AdjustHSICalibrationValue                     build/obj/./driver/stm32f0/spl/src/stm32f0xx_rcc.o
RCC_BackupResetCmd                                build/obj/./driver/stm32f0/spl/src/stm32f0xx_rcc.o
RCC_CECCLKConfig                                  build/obj/./driver/stm32f0/spl/src/stm32f0xx_rcc.o
RCC_CRS_IRQHandler                                build/obj/./src/startup/startup_stm32f0.os
RCC_ClearFlag                                     build/obj/./driver/stm32f0/spl/src/stm32f0xx_rcc.o
RCC_ClearITPendingBit                             build/obj/./driver/stm32f0/spl/src/stm32f0xx_rcc.o
RCC_ClockSecuritySystemCmd                        build/obj/./driver/stm32f0/spl/src/stm32f0xx_rcc.o
RCC_DeInit                                        build/obj/./driver/stm32f0/spl/src/stm32f0xx_rcc.o
RCC_GetClocksFreq                                 build/obj/./driver/stm32f0/spl/src/stm32f0xx_rcc.o
                                                  build/obj/./driver/stm32f0/spl/src/stm32f0xx_spi.o
                                                  build/obj/./driver/stm32f0/spl/src/stm32f0xx_usart.o
                                                  build/obj/./src/printing.opp
                                                  build/obj/./src/timer.opp
RCC_GetFlagStatus                                 build/obj/./driver/stm32f0/spl/src/stm32f0xx_rcc.o
                                                  build/obj/src/example/example-gpio.opp
RCC_GetITStatus                                   build/obj/./driver/stm32f0/spl/src/stm32f0xx_rcc.o
RCC_GetSYSCLKSource                               build/obj/./driver/stm32f0/spl/src/stm32f0xx_rcc.o
RCC_HCLKConfig                                    build/obj/./driver/stm32f0/spl/src/stm32f0xx_rcc.o
RCC_HSEConfig                                     build/obj/./driver/stm32f0/spl/src/stm32f0xx_rcc.o
RCC_HSI14ADCRequestCmd                            build/obj/./driver/stm32f0/spl/src/stm32f0xx_rcc.o
RCC_HSI14Cmd                                      build/obj/./driver/stm32f0/spl/src/stm32f0xx_rcc.o
RCC_HSI48Cmd                                      build/obj/./driver/stm32f0/spl/src/stm32f0xx_rcc.o
RCC_HSICmd                                        build/obj/./driver/stm32f0/spl/src/stm32f0xx_rcc.o
RCC_I2CCLKConfig                                  build/obj/./driver/stm32f0/spl/src/stm32f0xx_rcc.o
RCC_ITConfig                                      build/obj/./driver/stm32f0/spl/src/stm32f0xx_rcc.o
RCC_LSEConfig                                     build/obj/./driver/stm32f0/spl/src/stm32f0xx_rcc.o
RCC_LSEDriveConfig                                build/obj/./driver/stm32f0/spl/src/stm32f0xx_rcc.o
RCC_LSICmd                                        build/obj/./driver/stm32f0/spl/src/stm32f0xx_rcc.o
RCC_MCOConfig                                     build/obj/./driver/stm32f0/spl/src/stm32f0xx_rcc.o
RCC_PCLKConfig                                    build/obj/./driver/stm32f0/spl/src/stm32f0xx_rcc.o
RCC_PLLCmd                                        build/obj/./driver/stm32f0/spl/src/stm32f0xx_rcc.o
                                                  build/obj/src/example/example-gpio.opp
RCC_PLLConfig                                     build/obj/./driver/stm32f0/spl/src/stm32f0xx_rcc.o
                                                  build/obj/src/example/example-gpio.opp
RCC_PREDIV1Config                                 build/obj/./driver/stm32f0/spl/src/stm32f0xx_rcc.o
RCC_RTCCLKCmd                                     build/obj/./driver/stm32f0/spl/src/stm32f0xx_rcc.o
RCC_RTCCLKConfig                                  build/obj/./driver/stm32f0/spl/src/stm32f0xx_rcc.o
RCC_SYSCLKConfig                                  build/obj/./driver/stm32f0/spl/src/stm32f0xx_rcc.o
                                                  build/obj/src/example/example-gpio.opp
RCC_USARTCLKConfig                                build/obj/./driver/stm32f0/spl/src/stm32f0xx_rcc.o
RCC_USBCLKConfig                                  build/obj/./driver/stm32f0/spl/src/stm32f0xx_rcc.o
RCC_WaitForHSEStartUp                             build/obj/./driver/stm32f0/spl/src/stm32f0xx_rcc.o
RTC_AlarmCmd                                      build/obj/./driver/stm32f0/spl/src/stm32f0xx_rtc.o
RTC_AlarmStructInit                               build/obj/./driver/stm32f0/spl/src/stm32f0xx_rtc.o
RTC_AlarmSubSecondConfig                          build/obj/./driver/stm32f0/spl/src/stm32f0xx_rtc.o
RTC_BypassShadowCmd                               build/obj/./driver/stm32f0/spl/src/stm32f0xx_rtc.o
RTC_CalibOutputCmd                                build/obj/./driver/stm32f0/spl/src/stm32f0xx_rtc.o
RTC_CalibOutputConfig                             build/obj/./driver/stm32f0/spl/src/stm32f0xx_rtc.o
RTC_ClearFlag                                     build/obj/./driver/stm32f0/spl/src/stm32f0xx_rtc.o
RTC_ClearITPendingBit                             build/obj/./driver/stm32f0/spl/src/stm32f0xx_rtc.o
RTC_DateStructInit                                build/obj/./driver/stm32f0/spl/src/stm32f0xx_rtc.o
RTC_DayLightSavingConfig                          build/obj/./driver/stm32f0/spl/src/stm32f0xx_rtc.o
RTC_DeInit                                        build/obj/./driver/stm32f0/spl/src/stm32f0xx_rtc.o
RTC_EnterInitMode                                 build/obj/./driver/stm32f0/spl/src/stm32f0xx_rtc.o
RTC_ExitInitMode                                  build/obj/./driver/stm32f0/spl/src/stm32f0xx_rtc.o
RTC_GetAlarm                                      build/obj/./driver/stm32f0/spl/src/stm32f0xx_rtc.o
RTC_GetAlarmSubSecond                             build/obj/./driver/stm32f0/spl/src/stm32f0xx_rtc.o
RTC_GetDate                                       build/obj/./driver/stm32f0/spl/src/stm32f0xx_rtc.o
RTC_GetFlagStatus                                 build/obj/./driver/stm32f0/spl/src/stm32f0xx_rtc.o
RTC_GetITStatus                                   build/obj/./driver/stm32f0/spl/src/stm32f0xx_rtc.o
RTC_GetStoreOperation                             build/obj/./driver/stm32f0/spl/src/stm32f0xx_rtc.o
RTC_GetSubSecond                                  build/obj/./driver/stm32f0/spl/src/stm32f0xx_rtc.o
RTC_GetTime                                       build/obj/./driver/stm32f0/spl/src/stm32f0xx_rtc.o
RTC_GetTimeStamp                                  build/obj/./driver/stm32f0/spl/src/stm32f0xx_rtc.o
RTC_GetTimeStampSubSecond                         build/obj/./driver/stm32f0/spl/src/stm32f0xx_rtc.o
RTC_GetWakeUpCounter                              build/obj/./driver/stm32f0/spl/src/stm32f0xx_rtc.o
RTC_IRQHandler                                    build/obj/./src/startup/startup_stm32f0.os
RTC_ITConfig                                      build/obj/./driver/stm32f0/spl/src/stm32f0xx_rtc.o
RTC_Init                                          build/obj/./driver/stm32f0/spl/src/stm32f0xx_rtc.o
RTC_OutputConfig                                  build/obj/./driver/stm32f0/spl/src/stm32f0xx_rtc.o
RTC_OutputTypeConfig                              build/obj/./driver/stm32f0/spl/src/stm32f0xx_rtc.o
RTC_ReadBackupRegister                            build/obj/./driver/stm32f0/spl/src/stm32f0xx_rtc.o
RTC_RefClockCmd                                   build/obj/./driver/stm32f0/spl/src/stm32f0xx_rtc.o
RTC_SetAlarm                                      build/obj/./driver/stm32f0/spl/src/stm32f0xx_rtc.o
RTC_SetDate                                       build/obj/./driver/stm32f0/spl/src/stm32f0xx_rtc.o
RTC_SetTime                                       build/obj/./driver/stm32f0/spl/src/stm32f0xx_rtc.o
RTC_SetWakeUpCounter                              build/obj/./driver/stm32f0/spl/src/stm32f0xx_rtc.o
RTC_SmoothCalibConfig                             build/obj/./driver/stm32f0/spl/src/stm32f0xx_rtc.o
RTC_StructInit                                    build/obj/./driver/stm32f0/spl/src/stm32f0xx_rtc.o
RTC_SynchroShiftConfig                            build/obj/./driver/stm32f0/spl/src/stm32f0xx_rtc.o
RTC_TamperCmd                                     build/obj/./driver/stm32f0/spl/src/stm32f0xx_rtc.o
RTC_TamperFilterConfig                            build/obj/./driver/stm32f0/spl/src/stm32f0xx_rtc.o
RTC_TamperPinsPrechargeDuration                   build/obj/./driver/stm32f0/spl/src/stm32f0xx_rtc.o
RTC_TamperPullUpCmd                               build/obj/./driver/stm32f0/spl/src/stm32f0xx_rtc.o
RTC_TamperSamplingFreqConfig                      build/obj/./driver/stm32f0/spl/src/stm32f0xx_rtc.o
RTC_TamperTriggerConfig                           build/obj/./driver/stm32f0/spl/src/stm32f0xx_rtc.o
RTC_TimeStampCmd                                  build/obj/./driver/stm32f0/spl/src/stm32f0xx_rtc.o
RTC_TimeStampOnTamperDetectionCmd                 build/obj/./driver/stm32f0/spl/src/stm32f0xx_rtc.o
RTC_TimeStructInit                                build/obj/./driver/stm32f0/spl/src/stm32f0xx_rtc.o
RTC_WaitForSynchro                                build/obj/./driver/stm32f0/spl/src/stm32f0xx_rtc.o
RTC_WakeUpClockConfig                             build/obj/./driver/stm32f0/spl/src/stm32f0xx_rtc.o
RTC_WakeUpCmd                                     build/obj/./driver/stm32f0/spl/src/stm32f0xx_rtc.o
RTC_WriteBackupRegister                           build/obj/./driver/stm32f0/spl/src/stm32f0xx_rtc.o
RTC_WriteProtectionCmd                            build/obj/./driver/stm32f0/spl/src/stm32f0xx_rtc.o
Reset_Handler                                     build/obj/./src/startup/startup_stm32f0.os
SPI1_IRQHandler                                   build/obj/./src/startup/startup_stm32f0.os
SPI2_IRQHandler                                   build/obj/./src/startup/startup_stm32f0.os
SPI_BiDirectionalLineConfig                       build/obj/./driver/stm32f0/spl/src/stm32f0xx_spi.o
SPI_CRCLengthConfig                               build/obj/./driver/stm32f0/spl/src/stm32f0xx_spi.o
SPI_CalculateCRC                                  build/obj/./driver/stm32f0/spl/src/stm32f0xx_spi.o
SPI_Cmd                                           build/obj/./driver/stm32f0/spl/src/stm32f0xx_spi.o
SPI_DataSizeConfig                                build/obj/./driver/stm32f0/spl/src/stm32f0xx_spi.o
SPI_GetCRC                                        build/obj/./driver/stm32f0/spl/src/stm32f0xx_spi.o
SPI_GetCRCPolynomial                              build/obj/./driver/stm32f0/spl/src/stm32f0xx_spi.o
SPI_GetReceptionFIFOStatus                        build/obj/./driver/stm32f0/spl/src/stm32f0xx_spi.o
SPI_GetTransmissionFIFOStatus                     build/obj/./driver/stm32f0/spl/src/stm32f0xx_spi.o
SPI_I2S_ClearFlag                                 build/obj/./driver/stm32f0/spl/src/stm32f0xx_spi.o
SPI_I2S_DMACmd                                    build/obj/./driver/stm32f0/spl/src/stm32f0xx_spi.o
SPI_I2S_DeInit                                    build/obj/./driver/stm32f0/spl/src/stm32f0xx_spi.o
SPI_I2S_GetFlagStatus                             build/obj/./driver/stm32f0/spl/src/stm32f0xx_spi.o
SPI_I2S_GetITStatus                               build/obj/./driver/stm32f0/spl/src/stm32f0xx_spi.o
SPI_I2S_ITConfig                                  build/obj/./driver/stm32f0/spl/src/stm32f0xx_spi.o
SPI_I2S_ReceiveData16                             build/obj/./driver/stm32f0/spl/src/stm32f0xx_spi.o
SPI_I2S_SendData16                                build/obj/./driver/stm32f0/spl/src/stm32f0xx_spi.o
SPI_Init                                          build/obj/./driver/stm32f0/spl/src/stm32f0xx_spi.o
SPI_LastDMATransferCmd                            build/obj/./driver/stm32f0/spl/src/stm32f0xx_spi.o
SPI_NSSInternalSoftwareConfig                     build/obj/./driver/stm32f0/spl/src/stm32f0xx_spi.o
SPI_NSSPulseModeCmd                               build/obj/./driver/stm32f0/spl/src/stm32f0xx_spi.o
SPI_ReceiveData8                                  build/obj/./driver/stm32f0/spl/src/stm32f0xx_spi.o
SPI_RxFIFOThresholdConfig                         build/obj/./driver/stm32f0/spl/src/stm32f0xx_spi.o
SPI_SSOutputCmd                                   build/obj/./driver/stm32f0/spl/src/stm32f0xx_spi.o
SPI_SendData8                                     build/obj/./driver/stm32f0/spl/src/stm32f0xx_spi.o
SPI_StructInit                                    build/obj/./driver/stm32f0/spl/src/stm32f0xx_spi.o
SPI_TIModeCmd                                     build/obj/./driver/stm32f0/spl/src/stm32f0xx_spi.o
SPI_TransmitCRC                                   build/obj/./driver/stm32f0/spl/src/stm32f0xx_spi.o
SVC_Handler                                       build/obj/./src/startup/startup_stm32f0.os
SYSCFG_BreakConfig                                build/obj/./driver/stm32f0/spl/src/stm32f0xx_syscfg.o
SYSCFG_ClearFlag                                  build/obj/./driver/stm32f0/spl/src/stm32f0xx_syscfg.o
SYSCFG_DMAChannelRemapConfig                      build/obj/./driver/stm32f0/spl/src/stm32f0xx_syscfg.o
SYSCFG_DeInit                                     build/obj/./driver/stm32f0/spl/src/stm32f0xx_syscfg.o
SYSCFG_EXTILineConfig                             build/obj/./driver/stm32f0/spl/src/stm32f0xx_syscfg.o
SYSCFG_GetFlagStatus                              build/obj/./driver/stm32f0/spl/src/stm32f0xx_syscfg.o
SYSCFG_GetPendingIT                               build/obj/./driver/stm32f0/spl/src/stm32f0xx_syscfg.o
SYSCFG_I2CFastModePlusConfig                      build/obj/./driver/stm32f0/spl/src/stm32f0xx_syscfg.o
SYSCFG_IRDAEnvSelection                           build/obj/./driver/stm32f0/spl/src/stm32f0xx_syscfg.o
SYSCFG_MemoryRemapConfig                          build/obj/./driver/stm32f0/spl/src/stm32f0xx_syscfg.o
SysTick_CLKSourceConfig                           build/obj/./driver/stm32f0/spl/src/stm32f0xx_misc.o
SysTick_Handler                                   build/obj/./src/scheduling.opp
SystemCoreClock                                   build/obj/./driver/stm32f0/cmsis/device/system_stm32f0xx.o
                                                  build/obj/src/example/example-gpio.opp
                                                  build/obj/./src/scheduling.opp
SystemCoreClockUpdate                             build/obj/./driver/stm32f0/cmsis/device/system_stm32f0xx.o
                                                  build/obj/src/example/example-gpio.opp
                                                  build/obj/./src/scheduling.opp
SystemInit                                        build/obj/./driver/stm32f0/cmsis/device/system_stm32f0xx.o
                                                  build/obj/src/example/example-gpio.opp
                                                  build/obj/./src/startup/startup_stm32f0.os
                                                  build/obj/./src/scheduling.opp
TIM14_IRQHandler                                  build/obj/./src/startup/startup_stm32f0.os
TIM15_IRQHandler                                  build/obj/./src/startup/startup_stm32f0.os
TIM16_IRQHandler                                  build/obj/./src/startup/startup_stm32f0.os
TIM17_IRQHandler                                  build/obj/./src/startup/startup_stm32f0.os
TIM1_BRK_UP_TRG_COM_IRQHandler                    build/obj/./src/timer.opp
TIM1_CC_IRQHandler                                build/obj/./src/timer.opp
TIM2_IRQHandler                                   build/obj/./src/timer.opp
TIM3_IRQHandler                                   build/obj/./src/timer.opp
TIM6_DAC_IRQHandler                               build/obj/./src/startup/startup_stm32f0.os
TIM_ARRPreloadConfig                              build/obj/./driver/stm32f0/spl/src/stm32f0xx_tim.o
TIM_BDTRConfig                                    build/obj/./driver/stm32f0/spl/src/stm32f0xx_tim.o
                                                  build/obj/./src/timer.opp
TIM_BDTRStructInit                                build/obj/./driver/stm32f0/spl/src/stm32f0xx_tim.o
                                                  build/obj/./src/timer.opp
TIM_CCPreloadControl                              build/obj/./driver/stm32f0/spl/src/stm32f0xx_tim.o
                                                  build/obj/./src/timer.opp
TIM_CCxCmd                                        build/obj/./driver/stm32f0/spl/src/stm32f0xx_tim.o
                                                  build/obj/./src/timer.opp
TIM_CCxNCmd                                       build/obj/./driver/stm32f0/spl/src/stm32f0xx_tim.o
TIM_ClearFlag                                     build/obj/./driver/stm32f0/spl/src/stm32f0xx_tim.o
TIM_ClearITPendingBit                             build/obj/./driver/stm32f0/spl/src/stm32f0xx_tim.o
TIM_ClearOC1Ref                                   build/obj/./driver/stm32f0/spl/src/stm32f0xx_tim.o
TIM_ClearOC2Ref                                   build/obj/./driver/stm32f0/spl/src/stm32f0xx_tim.o
TIM_ClearOC3Ref                                   build/obj/./driver/stm32f0/spl/src/stm32f0xx_tim.o
TIM_ClearOC4Ref                                   build/obj/./driver/stm32f0/spl/src/stm32f0xx_tim.o
TIM_Cmd                                           build/obj/./driver/stm32f0/spl/src/stm32f0xx_tim.o
                                                  build/obj/./src/timer.opp
TIM_CounterModeConfig                             build/obj/./driver/stm32f0/spl/src/stm32f0xx_tim.o
TIM_CtrlPWMOutputs                                build/obj/./driver/stm32f0/spl/src/stm32f0xx_tim.o
TIM_DMACmd                                        build/obj/./driver/stm32f0/spl/src/stm32f0xx_tim.o
TIM_DMAConfig                                     build/obj/./driver/stm32f0/spl/src/stm32f0xx_tim.o
TIM_DeInit                                        build/obj/./driver/stm32f0/spl/src/stm32f0xx_tim.o
TIM_ETRClockMode1Config                           build/obj/./driver/stm32f0/spl/src/stm32f0xx_tim.o
TIM_ETRClockMode2Config                           build/obj/./driver/stm32f0/spl/src/stm32f0xx_tim.o
TIM_ETRConfig                                     build/obj/./driver/stm32f0/spl/src/stm32f0xx_tim.o
TIM_EncoderInterfaceConfig                        build/obj/./driver/stm32f0/spl/src/stm32f0xx_tim.o
TIM_ForcedOC1Config                               build/obj/./driver/stm32f0/spl/src/stm32f0xx_tim.o
TIM_ForcedOC2Config                               build/obj/./driver/stm32f0/spl/src/stm32f0xx_tim.o
TIM_ForcedOC3Config                               build/obj/./driver/stm32f0/spl/src/stm32f0xx_tim.o
TIM_ForcedOC4Config                               build/obj/./driver/stm32f0/spl/src/stm32f0xx_tim.o
TIM_GenerateEvent                                 build/obj/./driver/stm32f0/spl/src/stm32f0xx_tim.o
TIM_GetCapture1                                   build/obj/./driver/stm32f0/spl/src/stm32f0xx_tim.o
TIM_GetCapture2                                   build/obj/./driver/stm32f0/spl/src/stm32f0xx_tim.o
TIM_GetCapture3                                   build/obj/./driver/stm32f0/spl/src/stm32f0xx_tim.o
TIM_GetCapture4                                   build/obj/./driver/stm32f0/spl/src/stm32f0xx_tim.o
TIM_GetCounter                                    build/obj/./driver/stm32f0/spl/src/stm32f0xx_tim.o
TIM_GetFlagStatus                                 build/obj/./driver/stm32f0/spl/src/stm32f0xx_tim.o
TIM_GetITStatus                                   build/obj/./driver/stm32f0/spl/src/stm32f0xx_tim.o
                                                  build/obj/./src/timer.opp
TIM_GetPrescaler                                  build/obj/./driver/stm32f0/spl/src/stm32f0xx_tim.o
TIM_ICInit                                        build/obj/./driver/stm32f0/spl/src/stm32f0xx_tim.o
                                                  build/obj/./src/timer.opp
TIM_ICStructInit                                  build/obj/./driver/stm32f0/spl/src/stm32f0xx_tim.o
TIM_ITConfig                                      build/obj/./driver/stm32f0/spl/src/stm32f0xx_tim.o
                                                  build/obj/./src/timer.opp
TIM_ITRxExternalClockConfig                       build/obj/./driver/stm32f0/spl/src/stm32f0xx_tim.o
TIM_InternalClockConfig                           build/obj/./driver/stm32f0/spl/src/stm32f0xx_tim.o
TIM_OC1FastConfig                                 build/obj/./driver/stm32f0/spl/src/stm32f0xx_tim.o
TIM_OC1Init                                       build/obj/./driver/stm32f0/spl/src/stm32f0xx_tim.o
                                                  build/obj/./src/timer.opp
TIM_OC1NPolarityConfig                            build/obj/./driver/stm32f0/spl/src/stm32f0xx_tim.o
TIM_OC1PolarityConfig                             build/obj/./driver/stm32f0/spl/src/stm32f0xx_tim.o
TIM_OC1PreloadConfig                              build/obj/./driver/stm32f0/spl/src/stm32f0xx_tim.o
                                                  build/obj/./src/timer.opp
TIM_OC2FastConfig                                 build/obj/./driver/stm32f0/spl/src/stm32f0xx_tim.o
TIM_OC2Init                                       build/obj/./driver/stm32f0/spl/src/stm32f0xx_tim.o
                                                  build/obj/./src/timer.opp
TIM_OC2NPolarityConfig                            build/obj/./driver/stm32f0/spl/src/stm32f0xx_tim.o
TIM_OC2PolarityConfig                             build/obj/./driver/stm32f0/spl/src/stm32f0xx_tim.o
TIM_OC2PreloadConfig                              build/obj/./driver/stm32f0/spl/src/stm32f0xx_tim.o
                                                  build/obj/./src/timer.opp
TIM_OC3FastConfig                                 build/obj/./driver/stm32f0/spl/src/stm32f0xx_tim.o
TIM_OC3Init                                       build/obj/./driver/stm32f0/spl/src/stm32f0xx_tim.o
                                                  build/obj/./src/timer.opp
TIM_OC3NPolarityConfig                            build/obj/./driver/stm32f0/spl/src/stm32f0xx_tim.o
TIM_OC3PolarityConfig                             build/obj/./driver/stm32f0/spl/src/stm32f0xx_tim.o
TIM_OC3PreloadConfig                              build/obj/./driver/stm32f0/spl/src/stm32f0xx_tim.o
                                                  build/obj/./src/timer.opp
TIM_OC4FastConfig                                 build/obj/./driver/stm32f0/spl/src/stm32f0xx_tim.o
TIM_OC4Init                                       build/obj/./driver/stm32f0/spl/src/stm32f0xx_tim.o
                                                  build/obj/./src/timer.opp
TIM_OC4PolarityConfig                             build/obj/./driver/stm32f0/spl/src/stm32f0xx_tim.o
TIM_OC4PreloadConfig                              build/obj/./driver/stm32f0/spl/src/stm32f0xx_tim.o
                                                  build/obj/./src/timer.opp
TIM_OCStructInit                                  build/obj/./driver/stm32f0/spl/src/stm32f0xx_tim.o
TIM_PWMIConfig                                    build/obj/./driver/stm32f0/spl/src/stm32f0xx_tim.o
TIM_PrescalerConfig                               build/obj/./driver/stm32f0/spl/src/stm32f0xx_tim.o
                                                  build/obj/./src/timer.opp
TIM_RemapConfig                                   build/obj/./driver/stm32f0/spl/src/stm32f0xx_tim.o
TIM_SelectCCDMA                                   build/obj/./driver/stm32f0/spl/src/stm32f0xx_tim.o
TIM_SelectCOM                                     build/obj/./driver/stm32f0/spl/src/stm32f0xx_tim.o
TIM_SelectHallSensor                              build/obj/./driver/stm32f0/spl/src/stm32f0xx_tim.o
TIM_SelectInputTrigger                            build/obj/./driver/stm32f0/spl/src/stm32f0xx_tim.o
TIM_SelectMasterSlaveMode                         build/obj/./driver/stm32f0/spl/src/stm32f0xx_tim.o
TIM_SelectOCREFClear                              build/obj/./driver/stm32f0/spl/src/stm32f0xx_tim.o
TIM_SelectOCxM                                    build/obj/./driver/stm32f0/spl/src/stm32f0xx_tim.o
                                                  build/obj/./src/timer.opp
TIM_SelectOnePulseMode                            build/obj/./driver/stm32f0/spl/src/stm32f0xx_tim.o
TIM_SelectOutputTrigger                           build/obj/./driver/stm32f0/spl/src/stm32f0xx_tim.o
TIM_SelectSlaveMode                               build/obj/./driver/stm32f0/spl/src/stm32f0xx_tim.o
TIM_SetAutoreload                                 build/obj/./driver/stm32f0/spl/src/stm32f0xx_tim.o
                                                  build/obj/./src/timer.opp
TIM_SetClockDivision                              build/obj/./driver/stm32f0/spl/src/stm32f0xx_tim.o
TIM_SetCompare1                                   build/obj/./driver/stm32f0/spl/src/stm32f0xx_tim.o
                                                  build/obj/./src/timer.opp
TIM_SetCompare2                                   build/obj/./driver/stm32f0/spl/src/stm32f0xx_tim.o
                                                  build/obj/./src/timer.opp
TIM_SetCompare3                                   build/obj/./driver/stm32f0/spl/src/stm32f0xx_tim.o
                                                  build/obj/./src/timer.opp
TIM_SetCompare4                                   build/obj/./driver/stm32f0/spl/src/stm32f0xx_tim.o
                                                  build/obj/./src/timer.opp
TIM_SetCounter                                    build/obj/./driver/stm32f0/spl/src/stm32f0xx_tim.o
TIM_SetIC1Prescaler                               build/obj/./driver/stm32f0/spl/src/stm32f0xx_tim.o
TIM_SetIC2Prescaler                               build/obj/./driver/stm32f0/spl/src/stm32f0xx_tim.o
TIM_SetIC3Prescaler                               build/obj/./driver/stm32f0/spl/src/stm32f0xx_tim.o
TIM_SetIC4Prescaler                               build/obj/./driver/stm32f0/spl/src/stm32f0xx_tim.o
TIM_TIxExternalClockConfig                        build/obj/./driver/stm32f0/spl/src/stm32f0xx_tim.o
TIM_TimeBaseInit                                  build/obj/./driver/stm32f0/spl/src/stm32f0xx_tim.o
                                                  build/obj/./src/timer.opp
TIM_TimeBaseStructInit                            build/obj/./driver/stm32f0/spl/src/stm32f0xx_tim.o
                                                  build/obj/./src/timer.opp
TIM_UpdateDisableConfig                           build/obj/./driver/stm32f0/spl/src/stm32f0xx_tim.o
TIM_UpdateRequestConfig                           build/obj/./driver/stm32f0/spl/src/stm32f0xx_tim.o
TSC_IRQHandler                                    build/obj/./src/startup/startup_stm32f0.os
Timer::Timer(TIM_TypeDef*)                        build/obj/./src/timer.opp
Timer::Timer(TIM_TypeDef*)                        build/obj/./src/timer.opp
Timer::_configBDTR()                              build/obj/./src/timer.opp
Timer::_deleteCallbacks()                         build/obj/./src/timer.opp
Timer::_executeCallbacks(it_callback*)            build/obj/./src/timer.opp
Timer::_initBDTR()                                build/obj/./src/timer.opp
Timer::_initTimeBase()                            build/obj/./src/timer.opp
Timer::_irqHandler()                              build/obj/./src/timer.opp
Timer::addCallback(it_callback**, void (*)())     build/obj/./src/timer.opp
Timer::getAutoreload()                            build/obj/./src/timer.opp
Timer::init(unsigned short, unsigned long, unsigned short, unsigned short, unsigned char) build/obj/./src/timer.opp
Timer::interruptConfig(unsigned char, FunctionalState) build/obj/./src/timer.opp
Timer::setAutoreload(unsigned long)               build/obj/./src/timer.opp
Timer::setCCPreloadControl(FunctionalState)       build/obj/./src/timer.opp
Timer::setClockEnabled(FunctionalState)           build/obj/./src/timer.opp
Timer::setEnabled(FunctionalState)                build/obj/./src/timer.opp
Timer::setFrequency(unsigned short)               build/obj/./src/timer.opp
Timer::setFrequencyForce(unsigned short)          build/obj/./src/timer.opp
Timer::setPrescaler(unsigned short)               build/obj/./src/timer.opp
Timer::setupCc1Callback(void (*)())               build/obj/./src/timer.opp
Timer::setupCc2Callback(void (*)())               build/obj/./src/timer.opp
Timer::setupCc3Callback(void (*)())               build/obj/./src/timer.opp
Timer::setupCc4Callback(void (*)())               build/obj/./src/timer.opp
Timer::setupUpCallback(void (*)())                build/obj/./src/timer.opp
Timer::~Timer()                                   build/obj/./src/timer.opp
Timer::~Timer()                                   build/obj/./src/timer.opp
TimerChannelInput::_init()                        build/obj/./src/timer.opp
TimerChannelInput::init(unsigned short, unsigned short, unsigned short, unsigned short) build/obj/./src/timer.opp
TimerChannelInput::setEnabled(FunctionalState)    build/obj/./src/timer.opp
TimerChannelInput::setICFilter(unsigned short)    build/obj/./src/timer.opp
TimerChannelInput::setICPolarity(unsigned short)  build/obj/./src/timer.opp
TimerChannelInput::setICPrescaler(unsigned short) build/obj/./src/timer.opp
TimerChannelInput::setICSelection(unsigned short) build/obj/./src/timer.opp
TimerChannelOutput::_init()                       build/obj/./src/timer.opp
TimerChannelOutput::init(unsigned short, unsigned long, unsigned short, unsigned short, unsigned short, unsigned short, unsigned short, unsigned short) build/obj/./src/timer.opp
TimerChannelOutput::preloadConfig(FunctionalState) build/obj/./src/timer.opp
TimerChannelOutput::setCompare(unsigned short)    build/obj/./src/timer.opp
TimerChannelOutput::setDuty(unsigned short)       build/obj/./src/timer.opp
TimerChannelOutput::setEnabled(FunctionalState)   build/obj/./src/timer.opp
TimerChannelOutput::setEnabledN(FunctionalState)  build/obj/./src/timer.opp
TimerChannelOutput::setMode(unsigned short)       build/obj/./src/timer.opp
USART1_IRQHandler                                 build/obj/./src/uart.opp
USART2_IRQHandler                                 build/obj/./src/startup/startup_stm32f0.os
USART_AddressDetectionConfig                      build/obj/./driver/stm32f0/spl/src/stm32f0xx_usart.o
USART_AutoBaudRateCmd                             build/obj/./driver/stm32f0/spl/src/stm32f0xx_usart.o
USART_AutoBaudRateConfig                          build/obj/./driver/stm32f0/spl/src/stm32f0xx_usart.o
USART_ClearFlag                                   build/obj/./driver/stm32f0/spl/src/stm32f0xx_usart.o
USART_ClearITPendingBit                           build/obj/./driver/stm32f0/spl/src/stm32f0xx_usart.o
                                                  build/obj/./src/uart.opp
USART_ClockInit                                   build/obj/./driver/stm32f0/spl/src/stm32f0xx_usart.o
USART_ClockStructInit                             build/obj/./driver/stm32f0/spl/src/stm32f0xx_usart.o
USART_Cmd                                         build/obj/./driver/stm32f0/spl/src/stm32f0xx_usart.o
USART_DECmd                                       build/obj/./driver/stm32f0/spl/src/stm32f0xx_usart.o
USART_DEPolarityConfig                            build/obj/./driver/stm32f0/spl/src/stm32f0xx_usart.o
USART_DMACmd                                      build/obj/./driver/stm32f0/spl/src/stm32f0xx_usart.o
USART_DMAReceptionErrorConfig                     build/obj/./driver/stm32f0/spl/src/stm32f0xx_usart.o
USART_DataInvCmd                                  build/obj/./driver/stm32f0/spl/src/stm32f0xx_usart.o
USART_DeInit                                      build/obj/./driver/stm32f0/spl/src/stm32f0xx_usart.o
USART_DirectionModeCmd                            build/obj/./driver/stm32f0/spl/src/stm32f0xx_usart.o
USART_GetFlagStatus                               build/obj/./driver/stm32f0/spl/src/stm32f0xx_usart.o
                                                  build/obj/./src/uart.opp
                                                  build/obj/./src/printing.opp
USART_GetITStatus                                 build/obj/./driver/stm32f0/spl/src/stm32f0xx_usart.o
                                                  build/obj/./src/uart.opp
USART_HalfDuplexCmd                               build/obj/./driver/stm32f0/spl/src/stm32f0xx_usart.o
USART_ITConfig                                    build/obj/./driver/stm32f0/spl/src/stm32f0xx_usart.o
                                                  build/obj/./src/uart.opp
USART_Init                                        build/obj/./driver/stm32f0/spl/src/stm32f0xx_usart.o
USART_InvPinCmd                                   build/obj/./driver/stm32f0/spl/src/stm32f0xx_usart.o
USART_IrDACmd                                     build/obj/./driver/stm32f0/spl/src/stm32f0xx_usart.o
USART_IrDAConfig                                  build/obj/./driver/stm32f0/spl/src/stm32f0xx_usart.o
USART_LINBreakDetectLengthConfig                  build/obj/./driver/stm32f0/spl/src/stm32f0xx_usart.o
USART_LINCmd                                      build/obj/./driver/stm32f0/spl/src/stm32f0xx_usart.o
USART_MSBFirstCmd                                 build/obj/./driver/stm32f0/spl/src/stm32f0xx_usart.o
USART_MuteModeCmd                                 build/obj/./driver/stm32f0/spl/src/stm32f0xx_usart.o
USART_MuteModeWakeUpConfig                        build/obj/./driver/stm32f0/spl/src/stm32f0xx_usart.o
USART_OneBitMethodCmd                             build/obj/./driver/stm32f0/spl/src/stm32f0xx_usart.o
USART_OverSampling8Cmd                            build/obj/./driver/stm32f0/spl/src/stm32f0xx_usart.o
USART_OverrunDetectionConfig                      build/obj/./driver/stm32f0/spl/src/stm32f0xx_usart.o
USART_ReceiveData                                 build/obj/./driver/stm32f0/spl/src/stm32f0xx_usart.o
                                                  build/obj/./src/uart.opp
USART_ReceiverTimeOutCmd                          build/obj/./driver/stm32f0/spl/src/stm32f0xx_usart.o
USART_RequestCmd                                  build/obj/./driver/stm32f0/spl/src/stm32f0xx_usart.o
USART_STOPModeCmd                                 build/obj/./driver/stm32f0/spl/src/stm32f0xx_usart.o
USART_SWAPPinCmd                                  build/obj/./driver/stm32f0/spl/src/stm32f0xx_usart.o
USART_SendData                                    build/obj/./driver/stm32f0/spl/src/stm32f0xx_usart.o
                                                  build/obj/./src/uart.opp
                                                  build/obj/./src/printing.opp
USART_SetAddress                                  build/obj/./driver/stm32f0/spl/src/stm32f0xx_usart.o
USART_SetAutoRetryCount                           build/obj/./driver/stm32f0/spl/src/stm32f0xx_usart.o
USART_SetBlockLength                              build/obj/./driver/stm32f0/spl/src/stm32f0xx_usart.o
USART_SetDEAssertionTime                          build/obj/./driver/stm32f0/spl/src/stm32f0xx_usart.o
USART_SetDEDeassertionTime                        build/obj/./driver/stm32f0/spl/src/stm32f0xx_usart.o
USART_SetGuardTime                                build/obj/./driver/stm32f0/spl/src/stm32f0xx_usart.o
USART_SetPrescaler                                build/obj/./driver/stm32f0/spl/src/stm32f0xx_usart.o
USART_SetReceiverTimeOut                          build/obj/./driver/stm32f0/spl/src/stm32f0xx_usart.o
USART_SmartCardCmd                                build/obj/./driver/stm32f0/spl/src/stm32f0xx_usart.o
USART_SmartCardNACKCmd                            build/obj/./driver/stm32f0/spl/src/stm32f0xx_usart.o
USART_StopModeWakeUpSourceConfig                  build/obj/./driver/stm32f0/spl/src/stm32f0xx_usart.o
USART_StructInit                                  build/obj/./driver/stm32f0/spl/src/stm32f0xx_usart.o
Uart::ITConfig(unsigned long, FunctionalState)    build/obj/./src/uart.opp
Uart::Uart(USART_TypeDef*)                        build/obj/./src/uart.opp
Uart::Uart(USART_TypeDef*)                        build/obj/./src/uart.opp
Uart::bkspc()                                     build/obj/./src/uart.opp
Uart::cls()                                       build/obj/./src/uart.opp
Uart::read()                                      build/obj/./src/uart.opp
Uart::rxWaiting()                                 build/obj/./src/uart.opp
Uart::setClockEnabled(FunctionalState)            build/obj/./src/uart.opp
Uart::txSpaceAvailable()                          build/obj/./src/uart.opp
Uart::txSpaceUsed()                               build/obj/./src/uart.opp
Uart::write(char const*)                          build/obj/./src/uart.opp
                                                  build/obj/./src/printing.opp
Uart::write(char const*, unsigned short)          build/obj/./src/uart.opp
                                                  build/obj/./src/printing.opp
WWDG_ClearFlag                                    build/obj/./driver/stm32f0/spl/src/stm32f0xx_wwdg.o
WWDG_DeInit                                       build/obj/./driver/stm32f0/spl/src/stm32f0xx_wwdg.o
WWDG_Enable                                       build/obj/./driver/stm32f0/spl/src/stm32f0xx_wwdg.o
WWDG_EnableIT                                     build/obj/./driver/stm32f0/spl/src/stm32f0xx_wwdg.o
WWDG_GetFlagStatus                                build/obj/./driver/stm32f0/spl/src/stm32f0xx_wwdg.o
WWDG_IRQHandler                                   build/obj/./src/startup/startup_stm32f0.os
WWDG_SetCounter                                   build/obj/./driver/stm32f0/spl/src/stm32f0xx_wwdg.o
WWDG_SetPrescaler                                 build/obj/./driver/stm32f0/spl/src/stm32f0xx_wwdg.o
WWDG_SetWindowValue                               build/obj/./driver/stm32f0/spl/src/stm32f0xx_wwdg.o
__aeabi_atexit                                    /usr/lib/gcc/arm-none-eabi/8.2.0/../../../../arm-none-eabi/lib/thumb/v6-m/nofp/libstdc++_nano.a(atexit_arm.o)
                                                  build/obj/./src/timer.opp
__aeabi_cdcmpeq                                   /usr/lib/gcc/arm-none-eabi/8.2.0/thumb/v6-m/nofp/libgcc.a(_arm_cmpdf2.o)
__aeabi_cdcmple                                   /usr/lib/gcc/arm-none-eabi/8.2.0/thumb/v6-m/nofp/libgcc.a(_arm_cmpdf2.o)
__aeabi_cdrcmple                                  /usr/lib/gcc/arm-none-eabi/8.2.0/thumb/v6-m/nofp/libgcc.a(_arm_cmpdf2.o)
__aeabi_cfcmpeq                                   /usr/lib/gcc/arm-none-eabi/8.2.0/thumb/v6-m/nofp/libgcc.a(_arm_cmpsf2.o)
__aeabi_cfcmple                                   /usr/lib/gcc/arm-none-eabi/8.2.0/thumb/v6-m/nofp/libgcc.a(_arm_cmpsf2.o)
__aeabi_cfrcmple                                  /usr/lib/gcc/arm-none-eabi/8.2.0/thumb/v6-m/nofp/libgcc.a(_arm_cmpsf2.o)
__aeabi_dadd                                      /usr/lib/gcc/arm-none-eabi/8.2.0/thumb/v6-m/nofp/libgcc.a(adddf3.o)
                                                  build/obj/./src/LowPassFilter.opp
__aeabi_dcmpeq                                    /usr/lib/gcc/arm-none-eabi/8.2.0/thumb/v6-m/nofp/libgcc.a(_arm_cmpdf2.o)
__aeabi_dcmpge                                    /usr/lib/gcc/arm-none-eabi/8.2.0/thumb/v6-m/nofp/libgcc.a(_arm_cmpdf2.o)
__aeabi_dcmpgt                                    /usr/lib/gcc/arm-none-eabi/8.2.0/thumb/v6-m/nofp/libgcc.a(_arm_cmpdf2.o)
                                                  build/obj/./src/LowPassFilter.opp
__aeabi_dcmple                                    /usr/lib/gcc/arm-none-eabi/8.2.0/thumb/v6-m/nofp/libgcc.a(_arm_cmpdf2.o)
__aeabi_dcmplt                                    /usr/lib/gcc/arm-none-eabi/8.2.0/thumb/v6-m/nofp/libgcc.a(_arm_cmpdf2.o)
                                                  build/obj/./src/LowPassFilter.opp
__aeabi_dcmpun                                    /usr/lib/gcc/arm-none-eabi/8.2.0/thumb/v6-m/nofp/libgcc.a(unorddf2.o)
                                                  build/obj/./src/LowPassFilter.opp
__aeabi_ddiv                                      /usr/lib/gcc/arm-none-eabi/8.2.0/thumb/v6-m/nofp/libgcc.a(divdf3.o)
                                                  build/obj/./src/LowPassFilter.opp
__aeabi_f2iz                                      /usr/lib/gcc/arm-none-eabi/8.2.0/thumb/v6-m/nofp/libgcc.a(fixsfsi.o)
                                                  /usr/lib/gcc/arm-none-eabi/8.2.0/thumb/v6-m/nofp/libgcc.a(_fixunssfsi.o)
                                                  build/obj/./src/LowPassFilter.opp
__aeabi_f2uiz                                     /usr/lib/gcc/arm-none-eabi/8.2.0/thumb/v6-m/nofp/libgcc.a(_fixunssfsi.o)
                                                  build/obj/./src/timer.opp
__aeabi_fadd                                      /usr/lib/gcc/arm-none-eabi/8.2.0/thumb/v6-m/nofp/libgcc.a(addsf3.o)
                                                  build/obj/./src/helpers.opp
                                                  build/obj/./src/LowPassFilter.opp
__aeabi_fcmpeq                                    /usr/lib/gcc/arm-none-eabi/8.2.0/thumb/v6-m/nofp/libgcc.a(_arm_cmpsf2.o)
__aeabi_fcmpge                                    /usr/lib/gcc/arm-none-eabi/8.2.0/thumb/v6-m/nofp/libgcc.a(_arm_cmpsf2.o)
                                                  /usr/lib/gcc/arm-none-eabi/8.2.0/thumb/v6-m/nofp/libgcc.a(_fixunssfsi.o)
__aeabi_fcmpgt                                    /usr/lib/gcc/arm-none-eabi/8.2.0/thumb/v6-m/nofp/libgcc.a(_arm_cmpsf2.o)
                                                  build/obj/./src/helpers.opp
                                                  build/obj/./src/LowPassFilter.opp
__aeabi_fcmple                                    /usr/lib/gcc/arm-none-eabi/8.2.0/thumb/v6-m/nofp/libgcc.a(_arm_cmpsf2.o)
                                                  build/obj/./src/LowPassFilter.opp
__aeabi_fcmplt                                    /usr/lib/gcc/arm-none-eabi/8.2.0/thumb/v6-m/nofp/libgcc.a(_arm_cmpsf2.o)
                                                  build/obj/./src/helpers.opp
                                                  build/obj/./src/LowPassFilter.opp
__aeabi_fcmpun                                    /usr/lib/gcc/arm-none-eabi/8.2.0/thumb/v6-m/nofp/libgcc.a(unordsf2.o)
                                                  build/obj/./src/LowPassFilter.opp
__aeabi_fdiv                                      /usr/lib/gcc/arm-none-eabi/8.2.0/thumb/v6-m/nofp/libgcc.a(divsf3.o)
                                                  build/obj/./src/helpers.opp
                                                  build/obj/./src/LowPassFilter.opp
__aeabi_fmul                                      /usr/lib/gcc/arm-none-eabi/8.2.0/thumb/v6-m/nofp/libgcc.a(mulsf3.o)
                                                  build/obj/./src/helpers.opp
                                                  build/obj/./src/LowPassFilter.opp
__aeabi_fsub                                      /usr/lib/gcc/arm-none-eabi/8.2.0/thumb/v6-m/nofp/libgcc.a(subsf3.o)
                                                  /usr/lib/gcc/arm-none-eabi/8.2.0/thumb/v6-m/nofp/libgcc.a(_fixunssfsi.o)
                                                  build/obj/./src/helpers.opp
                                                  build/obj/./src/LowPassFilter.opp
__aeabi_i2f                                       /usr/lib/gcc/arm-none-eabi/8.2.0/thumb/v6-m/nofp/libgcc.a(floatsisf.o)
                                                  build/obj/./src/LowPassFilter.opp
__aeabi_idiv                                      /usr/lib/gcc/arm-none-eabi/8.2.0/thumb/v6-m/nofp/libgcc.a(_divsi3.o)
                                                  /usr/lib/gcc/arm-none-eabi/8.2.0/../../../../arm-none-eabi/lib/thumb/v6-m/nofp/libc_nano.a(lib_a-fvwrite.o)
                                                  build/obj/./driver/stm32f0/cmsis/device/system_stm32f0xx.o
                                                  build/obj/./driver/stm32f0/spl/src/stm32f0xx_spi.o
                                                  build/obj/./driver/stm32f0/spl/src/stm32f0xx_rcc.o
__aeabi_idiv0                                     /usr/lib/gcc/arm-none-eabi/8.2.0/thumb/v6-m/nofp/libgcc.a(_dvmd_tls.o)
                                                  /usr/lib/gcc/arm-none-eabi/8.2.0/thumb/v6-m/nofp/libgcc.a(_divsi3.o)
                                                  /usr/lib/gcc/arm-none-eabi/8.2.0/thumb/v6-m/nofp/libgcc.a(_udivsi3.o)
__aeabi_idivmod                                   /usr/lib/gcc/arm-none-eabi/8.2.0/thumb/v6-m/nofp/libgcc.a(_divsi3.o)
__aeabi_ldiv0                                     /usr/lib/gcc/arm-none-eabi/8.2.0/thumb/v6-m/nofp/libgcc.a(_dvmd_tls.o)
__aeabi_ui2f                                      /usr/lib/gcc/arm-none-eabi/8.2.0/thumb/v6-m/nofp/libgcc.a(floatunsisf.o)
                                                  build/obj/./src/timer.opp
__aeabi_uidiv                                     /usr/lib/gcc/arm-none-eabi/8.2.0/thumb/v6-m/nofp/libgcc.a(_udivsi3.o)
                                                  build/obj/src/example/example-gpio.opp
                                                  build/obj/./driver/stm32f0/cmsis/device/system_stm32f0xx.o
                                                  build/obj/./driver/stm32f0/spl/src/stm32f0xx_spi.o
                                                  build/obj/./driver/stm32f0/spl/src/stm32f0xx_rcc.o
                                                  build/obj/./src/scheduling.opp
                                                  build/obj/./src/printing.opp
                                                  build/obj/./src/adc.opp
                                                  build/obj/./src/timer.opp
__aeabi_uidivmod                                  /usr/lib/gcc/arm-none-eabi/8.2.0/thumb/v6-m/nofp/libgcc.a(_udivsi3.o)
                                                  /usr/lib/gcc/arm-none-eabi/8.2.0/thumb/v6-m/nofp/libgcc.a(divdf3.o)
                                                  /usr/lib/gcc/arm-none-eabi/8.2.0/../../../../arm-none-eabi/lib/thumb/v6-m/nofp/libc_nano.a(lib_a-nano-vfprintf_i.o)
                                                  build/obj/./driver/stm32f0/spl/src/stm32f0xx_usart.o
                                                  build/obj/./src/printing.opp
                                                  build/obj/./src/timer.opp
__assert                                          build/obj/./src/helpers.opp
__assert_func                                     build/obj/./src/helpers.opp
__atexit_dummy                                    /usr/lib/gcc/arm-none-eabi/8.2.0/../../../../arm-none-eabi/lib/thumb/v6-m/nofp/libc_nano.a(lib_a-__atexit.o)
__bss_end__                                       /usr/lib/gcc/arm-none-eabi/8.2.0/../../../../arm-none-eabi/lib/thumb/v6-m/nofp/crt0.o
__bss_start__                                     /usr/lib/gcc/arm-none-eabi/8.2.0/../../../../arm-none-eabi/lib/thumb/v6-m/nofp/crt0.o
__call_exitprocs                                  /usr/lib/gcc/arm-none-eabi/8.2.0/../../../../arm-none-eabi/lib/thumb/v6-m/nofp/libc_nano.a(lib_a-__call_atexit.o)
                                                  /usr/lib/gcc/arm-none-eabi/8.2.0/../../../../arm-none-eabi/lib/thumb/v6-m/nofp/libc_nano.a(lib_a-__atexit.o)
                                                  /usr/lib/gcc/arm-none-eabi/8.2.0/../../../../arm-none-eabi/lib/thumb/v6-m/nofp/libc_nano.a(lib_a-exit.o)
__clzsi2                                          /usr/lib/gcc/arm-none-eabi/8.2.0/thumb/v6-m/nofp/libgcc.a(_clzsi2.o)
                                                  /usr/lib/gcc/arm-none-eabi/8.2.0/thumb/v6-m/nofp/libgcc.a(divdf3.o)
                                                  /usr/lib/gcc/arm-none-eabi/8.2.0/thumb/v6-m/nofp/libgcc.a(adddf3.o)
                                                  /usr/lib/gcc/arm-none-eabi/8.2.0/thumb/v6-m/nofp/libgcc.a(floatunsisf.o)
                                                  /usr/lib/gcc/arm-none-eabi/8.2.0/thumb/v6-m/nofp/libgcc.a(floatsisf.o)
                                                  /usr/lib/gcc/arm-none-eabi/8.2.0/thumb/v6-m/nofp/libgcc.a(subsf3.o)
                                                  /usr/lib/gcc/arm-none-eabi/8.2.0/thumb/v6-m/nofp/libgcc.a(mulsf3.o)
                                                  /usr/lib/gcc/arm-none-eabi/8.2.0/thumb/v6-m/nofp/libgcc.a(divsf3.o)
                                                  /usr/lib/gcc/arm-none-eabi/8.2.0/thumb/v6-m/nofp/libgcc.a(addsf3.o)
__cxa_atexit                                      /usr/lib/gcc/arm-none-eabi/8.2.0/../../../../arm-none-eabi/lib/thumb/v6-m/nofp/libc_nano.a(lib_a-cxa_atexit.o)
                                                  /usr/lib/gcc/arm-none-eabi/8.2.0/../../../../arm-none-eabi/lib/thumb/v6-m/nofp/libstdc++_nano.a(atexit_arm.o)
__cxa_atexit_dummy                                /usr/lib/gcc/arm-none-eabi/8.2.0/../../../../arm-none-eabi/lib/thumb/v6-m/nofp/libc_nano.a(lib_a-cxa_atexit.o)
__deregister_frame_info                           /usr/lib/gcc/arm-none-eabi/8.2.0/thumb/v6-m/nofp/crtbegin.o
__divsi3                                          /usr/lib/gcc/arm-none-eabi/8.2.0/thumb/v6-m/nofp/libgcc.a(_divsi3.o)
__dso_handle                                      /usr/lib/gcc/arm-none-eabi/8.2.0/thumb/v6-m/nofp/crtbegin.o
                                                  build/obj/./src/timer.opp
__eqdf2                                           /usr/lib/gcc/arm-none-eabi/8.2.0/thumb/v6-m/nofp/libgcc.a(eqdf2.o)
                                                  /usr/lib/gcc/arm-none-eabi/8.2.0/thumb/v6-m/nofp/libgcc.a(_arm_cmpdf2.o)
__eqsf2                                           /usr/lib/gcc/arm-none-eabi/8.2.0/thumb/v6-m/nofp/libgcc.a(eqsf2.o)
                                                  /usr/lib/gcc/arm-none-eabi/8.2.0/thumb/v6-m/nofp/libgcc.a(_arm_cmpsf2.o)
__fini_array_end                                  /usr/lib/gcc/arm-none-eabi/8.2.0/../../../../arm-none-eabi/lib/thumb/v6-m/nofp/libc_nano.a(lib_a-fini.o)
__fini_array_start                                /usr/lib/gcc/arm-none-eabi/8.2.0/../../../../arm-none-eabi/lib/thumb/v6-m/nofp/libc_nano.a(lib_a-fini.o)
__fixunssfsi                                      /usr/lib/gcc/arm-none-eabi/8.2.0/thumb/v6-m/nofp/libgcc.a(_fixunssfsi.o)
__fp_lock_all                                     /usr/lib/gcc/arm-none-eabi/8.2.0/../../../../arm-none-eabi/lib/thumb/v6-m/nofp/libc_nano.a(lib_a-findfp.o)
__fp_unlock_all                                   /usr/lib/gcc/arm-none-eabi/8.2.0/../../../../arm-none-eabi/lib/thumb/v6-m/nofp/libc_nano.a(lib_a-findfp.o)
__gedf2                                           /usr/lib/gcc/arm-none-eabi/8.2.0/thumb/v6-m/nofp/libgcc.a(gedf2.o)
                                                  /usr/lib/gcc/arm-none-eabi/8.2.0/thumb/v6-m/nofp/libgcc.a(_arm_cmpdf2.o)
__gesf2                                           /usr/lib/gcc/arm-none-eabi/8.2.0/thumb/v6-m/nofp/libgcc.a(gesf2.o)
                                                  /usr/lib/gcc/arm-none-eabi/8.2.0/thumb/v6-m/nofp/libgcc.a(_arm_cmpsf2.o)
__gnu_cxx::__enable_if<std::__is_integer<int>::__value, bool>::__type std::isnan<int>(int) build/obj/./src/LowPassFilter.opp
__gnu_cxx::__enable_if<std::__is_integer<long>::__value, bool>::__type std::isnan<long>(long) build/obj/./src/LowPassFilter.opp
__gnu_cxx::__enable_if<std::__is_integer<short>::__value, bool>::__type std::isnan<short>(short) build/obj/./src/LowPassFilter.opp
__gnu_thumb1_case_uhi                             /usr/lib/gcc/arm-none-eabi/8.2.0/thumb/v6-m/nofp/libgcc.a(_thumb1_case_uhi.o)
                                                  /usr/lib/gcc/arm-none-eabi/8.2.0/thumb/v6-m/nofp/libgcc.a(divdf3.o)
__gnu_thumb1_case_uqi                             /usr/lib/gcc/arm-none-eabi/8.2.0/thumb/v6-m/nofp/libgcc.a(_thumb1_case_uqi.o)
                                                  /usr/lib/gcc/arm-none-eabi/8.2.0/thumb/v6-m/nofp/libgcc.a(mulsf3.o)
                                                  /usr/lib/gcc/arm-none-eabi/8.2.0/thumb/v6-m/nofp/libgcc.a(divsf3.o)
                                                  build/obj/./driver/stm32f0/spl/src/stm32f0xx_rcc.o
__gtdf2                                           /usr/lib/gcc/arm-none-eabi/8.2.0/thumb/v6-m/nofp/libgcc.a(gedf2.o)
__gtsf2                                           /usr/lib/gcc/arm-none-eabi/8.2.0/thumb/v6-m/nofp/libgcc.a(gesf2.o)
__init_array_end                                  /usr/lib/gcc/arm-none-eabi/8.2.0/../../../../arm-none-eabi/lib/thumb/v6-m/nofp/libc_nano.a(lib_a-init.o)
__init_array_start                                /usr/lib/gcc/arm-none-eabi/8.2.0/../../../../arm-none-eabi/lib/thumb/v6-m/nofp/libc_nano.a(lib_a-init.o)
__io_getchar                                      build/obj/./src/printing.opp
__io_putchar                                      build/obj/./src/printing.opp
__ledf2                                           /usr/lib/gcc/arm-none-eabi/8.2.0/thumb/v6-m/nofp/libgcc.a(ledf2.o)
                                                  /usr/lib/gcc/arm-none-eabi/8.2.0/thumb/v6-m/nofp/libgcc.a(_arm_cmpdf2.o)
__lesf2                                           /usr/lib/gcc/arm-none-eabi/8.2.0/thumb/v6-m/nofp/libgcc.a(lesf2.o)
                                                  /usr/lib/gcc/arm-none-eabi/8.2.0/thumb/v6-m/nofp/libgcc.a(_arm_cmpsf2.o)
__libc_fini_array                                 /usr/lib/gcc/arm-none-eabi/8.2.0/../../../../arm-none-eabi/lib/thumb/v6-m/nofp/libc_nano.a(lib_a-fini.o)
                                                  /usr/lib/gcc/arm-none-eabi/8.2.0/../../../../arm-none-eabi/lib/thumb/v6-m/nofp/crt0.o
__libc_init_array                                 /usr/lib/gcc/arm-none-eabi/8.2.0/../../../../arm-none-eabi/lib/thumb/v6-m/nofp/libc_nano.a(lib_a-init.o)
                                                  build/obj/./src/startup/startup_stm32f0.os
                                                  /usr/lib/gcc/arm-none-eabi/8.2.0/../../../../arm-none-eabi/lib/thumb/v6-m/nofp/crt0.o
__ltdf2                                           /usr/lib/gcc/arm-none-eabi/8.2.0/thumb/v6-m/nofp/libgcc.a(ledf2.o)
__ltsf2                                           /usr/lib/gcc/arm-none-eabi/8.2.0/thumb/v6-m/nofp/libgcc.a(lesf2.o)
__malloc_free_list                                /usr/lib/gcc/arm-none-eabi/8.2.0/../../../../arm-none-eabi/lib/thumb/v6-m/nofp/libc_nano.a(lib_a-nano-mallocr.o)
                                                  /usr/lib/gcc/arm-none-eabi/8.2.0/../../../../arm-none-eabi/lib/thumb/v6-m/nofp/libc_nano.a(lib_a-nano-freer.o)
__malloc_lock                                     /usr/lib/gcc/arm-none-eabi/8.2.0/../../../../arm-none-eabi/lib/thumb/v6-m/nofp/libc_nano.a(lib_a-mlock.o)
                                                  /usr/lib/gcc/arm-none-eabi/8.2.0/../../../../arm-none-eabi/lib/thumb/v6-m/nofp/libc_nano.a(lib_a-nano-mallocr.o)
                                                  /usr/lib/gcc/arm-none-eabi/8.2.0/../../../../arm-none-eabi/lib/thumb/v6-m/nofp/libc_nano.a(lib_a-nano-freer.o)
__malloc_sbrk_start                               /usr/lib/gcc/arm-none-eabi/8.2.0/../../../../arm-none-eabi/lib/thumb/v6-m/nofp/libc_nano.a(lib_a-nano-mallocr.o)
__malloc_unlock                                   /usr/lib/gcc/arm-none-eabi/8.2.0/../../../../arm-none-eabi/lib/thumb/v6-m/nofp/libc_nano.a(lib_a-mlock.o)
                                                  /usr/lib/gcc/arm-none-eabi/8.2.0/../../../../arm-none-eabi/lib/thumb/v6-m/nofp/libc_nano.a(lib_a-nano-mallocr.o)
                                                  /usr/lib/gcc/arm-none-eabi/8.2.0/../../../../arm-none-eabi/lib/thumb/v6-m/nofp/libc_nano.a(lib_a-nano-freer.o)
__nedf2                                           /usr/lib/gcc/arm-none-eabi/8.2.0/thumb/v6-m/nofp/libgcc.a(eqdf2.o)
__nesf2                                           /usr/lib/gcc/arm-none-eabi/8.2.0/thumb/v6-m/nofp/libgcc.a(eqsf2.o)
__on_exit_args                                    /usr/lib/gcc/arm-none-eabi/8.2.0/../../../../arm-none-eabi/lib/thumb/v6-m/nofp/libc_nano.a(lib_a-on_exit_args.o)
                                                  /usr/lib/gcc/arm-none-eabi/8.2.0/../../../../arm-none-eabi/lib/thumb/v6-m/nofp/libc_nano.a(lib_a-__atexit.o)
                                                  /usr/lib/gcc/arm-none-eabi/8.2.0/../../../../arm-none-eabi/lib/thumb/v6-m/nofp/libc_nano.a(lib_a-cxa_atexit.o)
__preinit_array_end                               /usr/lib/gcc/arm-none-eabi/8.2.0/../../../../arm-none-eabi/lib/thumb/v6-m/nofp/libc_nano.a(lib_a-init.o)
__preinit_array_start                             /usr/lib/gcc/arm-none-eabi/8.2.0/../../../../arm-none-eabi/lib/thumb/v6-m/nofp/libc_nano.a(lib_a-init.o)
__register_exitproc                               /usr/lib/gcc/arm-none-eabi/8.2.0/../../../../arm-none-eabi/lib/thumb/v6-m/nofp/libc_nano.a(lib_a-__atexit.o)
                                                  /usr/lib/gcc/arm-none-eabi/8.2.0/../../../../arm-none-eabi/lib/thumb/v6-m/nofp/libc_nano.a(lib_a-cxa_atexit.o)
                                                  /usr/lib/gcc/arm-none-eabi/8.2.0/../../../../arm-none-eabi/lib/thumb/v6-m/nofp/libc_nano.a(lib_a-atexit.o)
__register_frame_info                             /usr/lib/gcc/arm-none-eabi/8.2.0/thumb/v6-m/nofp/crtbegin.o
__sclose                                          /usr/lib/gcc/arm-none-eabi/8.2.0/../../../../arm-none-eabi/lib/thumb/v6-m/nofp/libc_nano.a(lib_a-stdio.o)
                                                  /usr/lib/gcc/arm-none-eabi/8.2.0/../../../../arm-none-eabi/lib/thumb/v6-m/nofp/libc_nano.a(lib_a-findfp.o)
__seofread                                        /usr/lib/gcc/arm-none-eabi/8.2.0/../../../../arm-none-eabi/lib/thumb/v6-m/nofp/libc_nano.a(lib_a-stdio.o)
__sf_fake_stderr                                  /usr/lib/gcc/arm-none-eabi/8.2.0/../../../../arm-none-eabi/lib/thumb/v6-m/nofp/libc_nano.a(lib_a-findfp.o)
                                                  /usr/lib/gcc/arm-none-eabi/8.2.0/../../../../arm-none-eabi/lib/thumb/v6-m/nofp/libc_nano.a(lib_a-nano-vfprintf.o)
                                                  /usr/lib/gcc/arm-none-eabi/8.2.0/../../../../arm-none-eabi/lib/thumb/v6-m/nofp/libc_nano.a(lib_a-fflush.o)
                                                  /usr/lib/gcc/arm-none-eabi/8.2.0/../../../../arm-none-eabi/lib/thumb/v6-m/nofp/libc_nano.a(lib_a-wsetup.o)
                                                  /usr/lib/gcc/arm-none-eabi/8.2.0/../../../../arm-none-eabi/lib/thumb/v6-m/nofp/libc_nano.a(lib_a-wbuf.o)
                                                  /usr/lib/gcc/arm-none-eabi/8.2.0/../../../../arm-none-eabi/lib/thumb/v6-m/nofp/libc_nano.a(lib_a-puts.o)
                                                  /usr/lib/gcc/arm-none-eabi/8.2.0/../../../../arm-none-eabi/lib/thumb/v6-m/nofp/libc_nano.a(lib_a-impure.o)
__sf_fake_stdin                                   /usr/lib/gcc/arm-none-eabi/8.2.0/../../../../arm-none-eabi/lib/thumb/v6-m/nofp/libc_nano.a(lib_a-findfp.o)
                                                  /usr/lib/gcc/arm-none-eabi/8.2.0/../../../../arm-none-eabi/lib/thumb/v6-m/nofp/libc_nano.a(lib_a-nano-vfprintf.o)
                                                  /usr/lib/gcc/arm-none-eabi/8.2.0/../../../../arm-none-eabi/lib/thumb/v6-m/nofp/libc_nano.a(lib_a-fflush.o)
                                                  /usr/lib/gcc/arm-none-eabi/8.2.0/../../../../arm-none-eabi/lib/thumb/v6-m/nofp/libc_nano.a(lib_a-wsetup.o)
                                                  /usr/lib/gcc/arm-none-eabi/8.2.0/../../../../arm-none-eabi/lib/thumb/v6-m/nofp/libc_nano.a(lib_a-wbuf.o)
                                                  /usr/lib/gcc/arm-none-eabi/8.2.0/../../../../arm-none-eabi/lib/thumb/v6-m/nofp/libc_nano.a(lib_a-puts.o)
                                                  /usr/lib/gcc/arm-none-eabi/8.2.0/../../../../arm-none-eabi/lib/thumb/v6-m/nofp/libc_nano.a(lib_a-impure.o)
__sf_fake_stdout                                  /usr/lib/gcc/arm-none-eabi/8.2.0/../../../../arm-none-eabi/lib/thumb/v6-m/nofp/libc_nano.a(lib_a-findfp.o)
                                                  /usr/lib/gcc/arm-none-eabi/8.2.0/../../../../arm-none-eabi/lib/thumb/v6-m/nofp/libc_nano.a(lib_a-nano-vfprintf.o)
                                                  /usr/lib/gcc/arm-none-eabi/8.2.0/../../../../arm-none-eabi/lib/thumb/v6-m/nofp/libc_nano.a(lib_a-fflush.o)
                                                  /usr/lib/gcc/arm-none-eabi/8.2.0/../../../../arm-none-eabi/lib/thumb/v6-m/nofp/libc_nano.a(lib_a-wsetup.o)
                                                  /usr/lib/gcc/arm-none-eabi/8.2.0/../../../../arm-none-eabi/lib/thumb/v6-m/nofp/libc_nano.a(lib_a-wbuf.o)
                                                  /usr/lib/gcc/arm-none-eabi/8.2.0/../../../../arm-none-eabi/lib/thumb/v6-m/nofp/libc_nano.a(lib_a-puts.o)
                                                  /usr/lib/gcc/arm-none-eabi/8.2.0/../../../../arm-none-eabi/lib/thumb/v6-m/nofp/libc_nano.a(lib_a-impure.o)
__sflush_r                                        /usr/lib/gcc/arm-none-eabi/8.2.0/../../../../arm-none-eabi/lib/thumb/v6-m/nofp/libc_nano.a(lib_a-fflush.o)
__sfmoreglue                                      /usr/lib/gcc/arm-none-eabi/8.2.0/../../../../arm-none-eabi/lib/thumb/v6-m/nofp/libc_nano.a(lib_a-findfp.o)
__sfp                                             /usr/lib/gcc/arm-none-eabi/8.2.0/../../../../arm-none-eabi/lib/thumb/v6-m/nofp/libc_nano.a(lib_a-findfp.o)
__sfp_lock_acquire                                /usr/lib/gcc/arm-none-eabi/8.2.0/../../../../arm-none-eabi/lib/thumb/v6-m/nofp/libc_nano.a(lib_a-findfp.o)
__sfp_lock_release                                /usr/lib/gcc/arm-none-eabi/8.2.0/../../../../arm-none-eabi/lib/thumb/v6-m/nofp/libc_nano.a(lib_a-findfp.o)
__sfputs_r                                        /usr/lib/gcc/arm-none-eabi/8.2.0/../../../../arm-none-eabi/lib/thumb/v6-m/nofp/libc_nano.a(lib_a-nano-vfprintf.o)
__sfvwrite_r                                      /usr/lib/gcc/arm-none-eabi/8.2.0/../../../../arm-none-eabi/lib/thumb/v6-m/nofp/libc_nano.a(lib_a-fvwrite.o)
                                                  /usr/lib/gcc/arm-none-eabi/8.2.0/../../../../arm-none-eabi/lib/thumb/v6-m/nofp/libc_nano.a(lib_a-nano-vfprintf.o)
__sigtramp                                        /usr/lib/gcc/arm-none-eabi/8.2.0/../../../../arm-none-eabi/lib/thumb/v6-m/nofp/libc_nano.a(lib_a-signal.o)
__sigtramp_r                                      /usr/lib/gcc/arm-none-eabi/8.2.0/../../../../arm-none-eabi/lib/thumb/v6-m/nofp/libc_nano.a(lib_a-signal.o)
__sinit                                           /usr/lib/gcc/arm-none-eabi/8.2.0/../../../../arm-none-eabi/lib/thumb/v6-m/nofp/libc_nano.a(lib_a-findfp.o)
                                                  /usr/lib/gcc/arm-none-eabi/8.2.0/../../../../arm-none-eabi/lib/thumb/v6-m/nofp/libc_nano.a(lib_a-nano-vfprintf.o)
                                                  /usr/lib/gcc/arm-none-eabi/8.2.0/../../../../arm-none-eabi/lib/thumb/v6-m/nofp/libc_nano.a(lib_a-fflush.o)
                                                  /usr/lib/gcc/arm-none-eabi/8.2.0/../../../../arm-none-eabi/lib/thumb/v6-m/nofp/libc_nano.a(lib_a-wsetup.o)
                                                  /usr/lib/gcc/arm-none-eabi/8.2.0/../../../../arm-none-eabi/lib/thumb/v6-m/nofp/libc_nano.a(lib_a-wbuf.o)
                                                  /usr/lib/gcc/arm-none-eabi/8.2.0/../../../../arm-none-eabi/lib/thumb/v6-m/nofp/libc_nano.a(lib_a-puts.o)
                                                  /usr/lib/gcc/arm-none-eabi/8.2.0/../../../../arm-none-eabi/lib/thumb/v6-m/nofp/libc_nano.a(lib_a-printf.o)
__sinit_lock_acquire                              /usr/lib/gcc/arm-none-eabi/8.2.0/../../../../arm-none-eabi/lib/thumb/v6-m/nofp/libc_nano.a(lib_a-findfp.o)
__sinit_lock_release                              /usr/lib/gcc/arm-none-eabi/8.2.0/../../../../arm-none-eabi/lib/thumb/v6-m/nofp/libc_nano.a(lib_a-findfp.o)
__smakebuf_r                                      /usr/lib/gcc/arm-none-eabi/8.2.0/../../../../arm-none-eabi/lib/thumb/v6-m/nofp/libc_nano.a(lib_a-makebuf.o)
                                                  /usr/lib/gcc/arm-none-eabi/8.2.0/../../../../arm-none-eabi/lib/thumb/v6-m/nofp/libc_nano.a(lib_a-wsetup.o)
__sprint_r                                        /usr/lib/gcc/arm-none-eabi/8.2.0/../../../../arm-none-eabi/lib/thumb/v6-m/nofp/libc_nano.a(lib_a-nano-vfprintf.o)
__sread                                           /usr/lib/gcc/arm-none-eabi/8.2.0/../../../../arm-none-eabi/lib/thumb/v6-m/nofp/libc_nano.a(lib_a-stdio.o)
                                                  /usr/lib/gcc/arm-none-eabi/8.2.0/../../../../arm-none-eabi/lib/thumb/v6-m/nofp/libc_nano.a(lib_a-findfp.o)
__sseek                                           /usr/lib/gcc/arm-none-eabi/8.2.0/../../../../arm-none-eabi/lib/thumb/v6-m/nofp/libc_nano.a(lib_a-stdio.o)
                                                  /usr/lib/gcc/arm-none-eabi/8.2.0/../../../../arm-none-eabi/lib/thumb/v6-m/nofp/libc_nano.a(lib_a-findfp.o)
__stack                                           /usr/lib/gcc/arm-none-eabi/8.2.0/../../../../arm-none-eabi/lib/thumb/v6-m/nofp/crt0.o
__swbuf                                           /usr/lib/gcc/arm-none-eabi/8.2.0/../../../../arm-none-eabi/lib/thumb/v6-m/nofp/libc_nano.a(lib_a-wbuf.o)
__swbuf_r                                         /usr/lib/gcc/arm-none-eabi/8.2.0/../../../../arm-none-eabi/lib/thumb/v6-m/nofp/libc_nano.a(lib_a-wbuf.o)
                                                  /usr/lib/gcc/arm-none-eabi/8.2.0/../../../../arm-none-eabi/lib/thumb/v6-m/nofp/libc_nano.a(lib_a-nano-vfprintf.o)
                                                  /usr/lib/gcc/arm-none-eabi/8.2.0/../../../../arm-none-eabi/lib/thumb/v6-m/nofp/libc_nano.a(lib_a-puts.o)
__swhatbuf_r                                      /usr/lib/gcc/arm-none-eabi/8.2.0/../../../../arm-none-eabi/lib/thumb/v6-m/nofp/libc_nano.a(lib_a-makebuf.o)
__swrite                                          /usr/lib/gcc/arm-none-eabi/8.2.0/../../../../arm-none-eabi/lib/thumb/v6-m/nofp/libc_nano.a(lib_a-stdio.o)
                                                  /usr/lib/gcc/arm-none-eabi/8.2.0/../../../../arm-none-eabi/lib/thumb/v6-m/nofp/libc_nano.a(lib_a-findfp.o)
__swsetup_r                                       /usr/lib/gcc/arm-none-eabi/8.2.0/../../../../arm-none-eabi/lib/thumb/v6-m/nofp/libc_nano.a(lib_a-wsetup.o)
                                                  /usr/lib/gcc/arm-none-eabi/8.2.0/../../../../arm-none-eabi/lib/thumb/v6-m/nofp/libc_nano.a(lib_a-fvwrite.o)
                                                  /usr/lib/gcc/arm-none-eabi/8.2.0/../../../../arm-none-eabi/lib/thumb/v6-m/nofp/libc_nano.a(lib_a-nano-vfprintf.o)
                                                  /usr/lib/gcc/arm-none-eabi/8.2.0/../../../../arm-none-eabi/lib/thumb/v6-m/nofp/libc_nano.a(lib_a-wbuf.o)
                                                  /usr/lib/gcc/arm-none-eabi/8.2.0/../../../../arm-none-eabi/lib/thumb/v6-m/nofp/libc_nano.a(lib_a-puts.o)
__udivsi3                                         /usr/lib/gcc/arm-none-eabi/8.2.0/thumb/v6-m/nofp/libgcc.a(_udivsi3.o)
_cleanup                                          /usr/lib/gcc/arm-none-eabi/8.2.0/../../../../arm-none-eabi/lib/thumb/v6-m/nofp/libc_nano.a(lib_a-findfp.o)
_cleanup_r                                        /usr/lib/gcc/arm-none-eabi/8.2.0/../../../../arm-none-eabi/lib/thumb/v6-m/nofp/libc_nano.a(lib_a-findfp.o)
                                                  /usr/lib/gcc/arm-none-eabi/8.2.0/../../../../arm-none-eabi/lib/thumb/v6-m/nofp/libc_nano.a(lib_a-makebuf.o)
_close                                            /usr/lib/gcc/arm-none-eabi/8.2.0/../../../../arm-none-eabi/lib/thumb/v6-m/nofp/libnosys.a(close.o)
                                                  /usr/lib/gcc/arm-none-eabi/8.2.0/../../../../arm-none-eabi/lib/thumb/v6-m/nofp/libc_nano.a(lib_a-closer.o)
_close_r                                          /usr/lib/gcc/arm-none-eabi/8.2.0/../../../../arm-none-eabi/lib/thumb/v6-m/nofp/libc_nano.a(lib_a-closer.o)
                                                  /usr/lib/gcc/arm-none-eabi/8.2.0/../../../../arm-none-eabi/lib/thumb/v6-m/nofp/libc_nano.a(lib_a-stdio.o)
_ebss                                             build/obj/./src/startup/startup_stm32f0.os
_edata                                            build/obj/./src/startup/startup_stm32f0.os
_estack                                           build/obj/./src/startup/startup_stm32f0.os
_exit                                             /usr/lib/gcc/arm-none-eabi/8.2.0/../../../../arm-none-eabi/lib/thumb/v6-m/nofp/libnosys.a(_exit.o)
                                                  /usr/lib/gcc/arm-none-eabi/8.2.0/../../../../arm-none-eabi/lib/thumb/v6-m/nofp/libc_nano.a(lib_a-exit.o)
                                                  /usr/lib/gcc/arm-none-eabi/8.2.0/../../../../arm-none-eabi/lib/thumb/v6-m/nofp/libc_nano.a(lib_a-abort.o)
_fflush_r                                         /usr/lib/gcc/arm-none-eabi/8.2.0/../../../../arm-none-eabi/lib/thumb/v6-m/nofp/libc_nano.a(lib_a-fflush.o)
                                                  /usr/lib/gcc/arm-none-eabi/8.2.0/../../../../arm-none-eabi/lib/thumb/v6-m/nofp/libc_nano.a(lib_a-fvwrite.o)
                                                  /usr/lib/gcc/arm-none-eabi/8.2.0/../../../../arm-none-eabi/lib/thumb/v6-m/nofp/libc_nano.a(lib_a-findfp.o)
                                                  /usr/lib/gcc/arm-none-eabi/8.2.0/../../../../arm-none-eabi/lib/thumb/v6-m/nofp/libc_nano.a(lib_a-wbuf.o)
_fini                                             /usr/lib/gcc/arm-none-eabi/8.2.0/thumb/v6-m/nofp/crti.o
                                                  /usr/lib/gcc/arm-none-eabi/8.2.0/../../../../arm-none-eabi/lib/thumb/v6-m/nofp/libc_nano.a(lib_a-fini.o)
_free_r                                           /usr/lib/gcc/arm-none-eabi/8.2.0/../../../../arm-none-eabi/lib/thumb/v6-m/nofp/libc_nano.a(lib_a-nano-freer.o)
                                                  /usr/lib/gcc/arm-none-eabi/8.2.0/../../../../arm-none-eabi/lib/thumb/v6-m/nofp/libc_nano.a(lib_a-nano-reallocr.o)
                                                  /usr/lib/gcc/arm-none-eabi/8.2.0/../../../../arm-none-eabi/lib/thumb/v6-m/nofp/libc_nano.a(lib_a-fvwrite.o)
                                                  /usr/lib/gcc/arm-none-eabi/8.2.0/../../../../arm-none-eabi/lib/thumb/v6-m/nofp/libc_nano.a(lib_a-reent.o)
                                                  /usr/lib/gcc/arm-none-eabi/8.2.0/../../../../arm-none-eabi/lib/thumb/v6-m/nofp/libc_nano.a(lib_a-fflush.o)
                                                  /usr/lib/gcc/arm-none-eabi/8.2.0/../../../../arm-none-eabi/lib/thumb/v6-m/nofp/libc_nano.a(lib_a-wsetup.o)
                                                  /usr/lib/gcc/arm-none-eabi/8.2.0/../../../../arm-none-eabi/lib/thumb/v6-m/nofp/libc_nano.a(lib_a-malloc.o)
_fstat                                            /usr/lib/gcc/arm-none-eabi/8.2.0/../../../../arm-none-eabi/lib/thumb/v6-m/nofp/libnosys.a(fstat.o)
                                                  /usr/lib/gcc/arm-none-eabi/8.2.0/../../../../arm-none-eabi/lib/thumb/v6-m/nofp/libc_nano.a(lib_a-fstatr.o)
_fstat_r                                          /usr/lib/gcc/arm-none-eabi/8.2.0/../../../../arm-none-eabi/lib/thumb/v6-m/nofp/libc_nano.a(lib_a-fstatr.o)
                                                  /usr/lib/gcc/arm-none-eabi/8.2.0/../../../../arm-none-eabi/lib/thumb/v6-m/nofp/libc_nano.a(lib_a-makebuf.o)
_fwalk                                            /usr/lib/gcc/arm-none-eabi/8.2.0/../../../../arm-none-eabi/lib/thumb/v6-m/nofp/libc_nano.a(lib_a-fwalk.o)
                                                  /usr/lib/gcc/arm-none-eabi/8.2.0/../../../../arm-none-eabi/lib/thumb/v6-m/nofp/libc_nano.a(lib_a-findfp.o)
_fwalk_reent                                      /usr/lib/gcc/arm-none-eabi/8.2.0/../../../../arm-none-eabi/lib/thumb/v6-m/nofp/libc_nano.a(lib_a-fwalk.o)
                                                  /usr/lib/gcc/arm-none-eabi/8.2.0/../../../../arm-none-eabi/lib/thumb/v6-m/nofp/libc_nano.a(lib_a-findfp.o)
                                                  /usr/lib/gcc/arm-none-eabi/8.2.0/../../../../arm-none-eabi/lib/thumb/v6-m/nofp/libc_nano.a(lib_a-fflush.o)
_getpid                                           /usr/lib/gcc/arm-none-eabi/8.2.0/../../../../arm-none-eabi/lib/thumb/v6-m/nofp/libnosys.a(getpid.o)
                                                  /usr/lib/gcc/arm-none-eabi/8.2.0/../../../../arm-none-eabi/lib/thumb/v6-m/nofp/libc_nano.a(lib_a-signalr.o)
_getpid_r                                         /usr/lib/gcc/arm-none-eabi/8.2.0/../../../../arm-none-eabi/lib/thumb/v6-m/nofp/libc_nano.a(lib_a-signalr.o)
                                                  /usr/lib/gcc/arm-none-eabi/8.2.0/../../../../arm-none-eabi/lib/thumb/v6-m/nofp/libc_nano.a(lib_a-signal.o)
_global_atexit                                    /usr/lib/gcc/arm-none-eabi/8.2.0/../../../../arm-none-eabi/lib/thumb/v6-m/nofp/libc_nano.a(lib_a-__call_atexit.o)
                                                  /usr/lib/gcc/arm-none-eabi/8.2.0/../../../../arm-none-eabi/lib/thumb/v6-m/nofp/libc_nano.a(lib_a-__atexit.o)
_global_impure_ptr                                /usr/lib/gcc/arm-none-eabi/8.2.0/../../../../arm-none-eabi/lib/thumb/v6-m/nofp/libc_nano.a(lib_a-impure.o)
                                                  /usr/lib/gcc/arm-none-eabi/8.2.0/../../../../arm-none-eabi/lib/thumb/v6-m/nofp/libc_nano.a(lib_a-findfp.o)
                                                  /usr/lib/gcc/arm-none-eabi/8.2.0/../../../../arm-none-eabi/lib/thumb/v6-m/nofp/libc_nano.a(lib_a-fflush.o)
                                                  /usr/lib/gcc/arm-none-eabi/8.2.0/../../../../arm-none-eabi/lib/thumb/v6-m/nofp/libc_nano.a(lib_a-exit.o)
_impure_ptr                                       /usr/lib/gcc/arm-none-eabi/8.2.0/../../../../arm-none-eabi/lib/thumb/v6-m/nofp/libc_nano.a(lib_a-impure.o)
                                                  /usr/lib/gcc/arm-none-eabi/8.2.0/../../../../arm-none-eabi/lib/thumb/v6-m/nofp/libc_nano.a(lib_a-reent.o)
                                                  /usr/lib/gcc/arm-none-eabi/8.2.0/../../../../arm-none-eabi/lib/thumb/v6-m/nofp/libc_nano.a(lib_a-nano-vfprintf.o)
                                                  /usr/lib/gcc/arm-none-eabi/8.2.0/../../../../arm-none-eabi/lib/thumb/v6-m/nofp/libc_nano.a(lib_a-findfp.o)
                                                  /usr/lib/gcc/arm-none-eabi/8.2.0/../../../../arm-none-eabi/lib/thumb/v6-m/nofp/libc_nano.a(lib_a-fflush.o)
                                                  /usr/lib/gcc/arm-none-eabi/8.2.0/../../../../arm-none-eabi/lib/thumb/v6-m/nofp/libc_nano.a(lib_a-wsetup.o)
                                                  /usr/lib/gcc/arm-none-eabi/8.2.0/../../../../arm-none-eabi/lib/thumb/v6-m/nofp/libc_nano.a(lib_a-wbuf.o)
                                                  /usr/lib/gcc/arm-none-eabi/8.2.0/../../../../arm-none-eabi/lib/thumb/v6-m/nofp/libc_nano.a(lib_a-signal.o)
                                                  /usr/lib/gcc/arm-none-eabi/8.2.0/../../../../arm-none-eabi/lib/thumb/v6-m/nofp/libc_nano.a(lib_a-puts.o)
                                                  /usr/lib/gcc/arm-none-eabi/8.2.0/../../../../arm-none-eabi/lib/thumb/v6-m/nofp/libc_nano.a(lib_a-printf.o)
                                                  /usr/lib/gcc/arm-none-eabi/8.2.0/../../../../arm-none-eabi/lib/thumb/v6-m/nofp/libc_nano.a(lib_a-malloc.o)
_init                                             /usr/lib/gcc/arm-none-eabi/8.2.0/thumb/v6-m/nofp/crti.o
                                                  /usr/lib/gcc/arm-none-eabi/8.2.0/../../../../arm-none-eabi/lib/thumb/v6-m/nofp/libc_nano.a(lib_a-init.o)
_init_signal                                      /usr/lib/gcc/arm-none-eabi/8.2.0/../../../../arm-none-eabi/lib/thumb/v6-m/nofp/libc_nano.a(lib_a-signal.o)
_init_signal_r                                    /usr/lib/gcc/arm-none-eabi/8.2.0/../../../../arm-none-eabi/lib/thumb/v6-m/nofp/libc_nano.a(lib_a-signal.o)
_iprintf_r                                        /usr/lib/gcc/arm-none-eabi/8.2.0/../../../../arm-none-eabi/lib/thumb/v6-m/nofp/libc_nano.a(lib_a-printf.o)
_isatty                                           /usr/lib/gcc/arm-none-eabi/8.2.0/../../../../arm-none-eabi/lib/thumb/v6-m/nofp/libnosys.a(isatty.o)
                                                  /usr/lib/gcc/arm-none-eabi/8.2.0/../../../../arm-none-eabi/lib/thumb/v6-m/nofp/libc_nano.a(lib_a-isattyr.o)
_isatty_r                                         /usr/lib/gcc/arm-none-eabi/8.2.0/../../../../arm-none-eabi/lib/thumb/v6-m/nofp/libc_nano.a(lib_a-isattyr.o)
                                                  /usr/lib/gcc/arm-none-eabi/8.2.0/../../../../arm-none-eabi/lib/thumb/v6-m/nofp/libc_nano.a(lib_a-makebuf.o)
_kill                                             /usr/lib/gcc/arm-none-eabi/8.2.0/../../../../arm-none-eabi/lib/thumb/v6-m/nofp/libnosys.a(kill.o)
                                                  /usr/lib/gcc/arm-none-eabi/8.2.0/../../../../arm-none-eabi/lib/thumb/v6-m/nofp/libc_nano.a(lib_a-signalr.o)
_kill_r                                           /usr/lib/gcc/arm-none-eabi/8.2.0/../../../../arm-none-eabi/lib/thumb/v6-m/nofp/libc_nano.a(lib_a-signalr.o)
                                                  /usr/lib/gcc/arm-none-eabi/8.2.0/../../../../arm-none-eabi/lib/thumb/v6-m/nofp/libc_nano.a(lib_a-signal.o)
_lseek                                            /usr/lib/gcc/arm-none-eabi/8.2.0/../../../../arm-none-eabi/lib/thumb/v6-m/nofp/libnosys.a(lseek.o)
                                                  /usr/lib/gcc/arm-none-eabi/8.2.0/../../../../arm-none-eabi/lib/thumb/v6-m/nofp/libc_nano.a(lib_a-lseekr.o)
_lseek_r                                          /usr/lib/gcc/arm-none-eabi/8.2.0/../../../../arm-none-eabi/lib/thumb/v6-m/nofp/libc_nano.a(lib_a-lseekr.o)
                                                  /usr/lib/gcc/arm-none-eabi/8.2.0/../../../../arm-none-eabi/lib/thumb/v6-m/nofp/libc_nano.a(lib_a-stdio.o)
_mainCRTStartup                                   /usr/lib/gcc/arm-none-eabi/8.2.0/../../../../arm-none-eabi/lib/thumb/v6-m/nofp/crt0.o
_malloc_r                                         /usr/lib/gcc/arm-none-eabi/8.2.0/../../../../arm-none-eabi/lib/thumb/v6-m/nofp/libc_nano.a(lib_a-nano-mallocr.o)
                                                  /usr/lib/gcc/arm-none-eabi/8.2.0/../../../../arm-none-eabi/lib/thumb/v6-m/nofp/libc_nano.a(lib_a-nano-reallocr.o)
                                                  /usr/lib/gcc/arm-none-eabi/8.2.0/../../../../arm-none-eabi/lib/thumb/v6-m/nofp/libc_nano.a(lib_a-fvwrite.o)
                                                  /usr/lib/gcc/arm-none-eabi/8.2.0/../../../../arm-none-eabi/lib/thumb/v6-m/nofp/libc_nano.a(lib_a-makebuf.o)
                                                  /usr/lib/gcc/arm-none-eabi/8.2.0/../../../../arm-none-eabi/lib/thumb/v6-m/nofp/libc_nano.a(lib_a-findfp.o)
                                                  /usr/lib/gcc/arm-none-eabi/8.2.0/../../../../arm-none-eabi/lib/thumb/v6-m/nofp/libc_nano.a(lib_a-signal.o)
                                                  /usr/lib/gcc/arm-none-eabi/8.2.0/../../../../arm-none-eabi/lib/thumb/v6-m/nofp/libc_nano.a(lib_a-malloc.o)
_malloc_usable_size_r                             /usr/lib/gcc/arm-none-eabi/8.2.0/../../../../arm-none-eabi/lib/thumb/v6-m/nofp/libc_nano.a(lib_a-nano-msizer.o)
                                                  /usr/lib/gcc/arm-none-eabi/8.2.0/../../../../arm-none-eabi/lib/thumb/v6-m/nofp/libc_nano.a(lib_a-nano-reallocr.o)
_printf_common                                    /usr/lib/gcc/arm-none-eabi/8.2.0/../../../../arm-none-eabi/lib/thumb/v6-m/nofp/libc_nano.a(lib_a-nano-vfprintf_i.o)
_printf_float                                     /usr/lib/gcc/arm-none-eabi/8.2.0/../../../../arm-none-eabi/lib/thumb/v6-m/nofp/libc_nano.a(lib_a-nano-vfprintf.o)
_printf_i                                         /usr/lib/gcc/arm-none-eabi/8.2.0/../../../../arm-none-eabi/lib/thumb/v6-m/nofp/libc_nano.a(lib_a-nano-vfprintf_i.o)
                                                  /usr/lib/gcc/arm-none-eabi/8.2.0/../../../../arm-none-eabi/lib/thumb/v6-m/nofp/libc_nano.a(lib_a-nano-vfprintf.o)
_printf_r                                         /usr/lib/gcc/arm-none-eabi/8.2.0/../../../../arm-none-eabi/lib/thumb/v6-m/nofp/libc_nano.a(lib_a-printf.o)
_puts_r                                           /usr/lib/gcc/arm-none-eabi/8.2.0/../../../../arm-none-eabi/lib/thumb/v6-m/nofp/libc_nano.a(lib_a-puts.o)
_raise_r                                          /usr/lib/gcc/arm-none-eabi/8.2.0/../../../../arm-none-eabi/lib/thumb/v6-m/nofp/libc_nano.a(lib_a-signal.o)
_read                                             /usr/lib/gcc/arm-none-eabi/8.2.0/../../../../arm-none-eabi/lib/thumb/v6-m/nofp/libnosys.a(read.o)
                                                  /usr/lib/gcc/arm-none-eabi/8.2.0/../../../../arm-none-eabi/lib/thumb/v6-m/nofp/libc_nano.a(lib_a-readr.o)
_read_r                                           /usr/lib/gcc/arm-none-eabi/8.2.0/../../../../arm-none-eabi/lib/thumb/v6-m/nofp/libc_nano.a(lib_a-readr.o)
                                                  /usr/lib/gcc/arm-none-eabi/8.2.0/../../../../arm-none-eabi/lib/thumb/v6-m/nofp/libc_nano.a(lib_a-stdio.o)
_realloc_r                                        /usr/lib/gcc/arm-none-eabi/8.2.0/../../../../arm-none-eabi/lib/thumb/v6-m/nofp/libc_nano.a(lib_a-nano-reallocr.o)
                                                  /usr/lib/gcc/arm-none-eabi/8.2.0/../../../../arm-none-eabi/lib/thumb/v6-m/nofp/libc_nano.a(lib_a-fvwrite.o)
_reclaim_reent                                    /usr/lib/gcc/arm-none-eabi/8.2.0/../../../../arm-none-eabi/lib/thumb/v6-m/nofp/libc_nano.a(lib_a-reent.o)
_sbrk                                             /usr/lib/gcc/arm-none-eabi/8.2.0/../../../../arm-none-eabi/lib/thumb/v6-m/nofp/libnosys.a(sbrk.o)
                                                  /usr/lib/gcc/arm-none-eabi/8.2.0/../../../../arm-none-eabi/lib/thumb/v6-m/nofp/libc_nano.a(lib_a-sbrkr.o)
_sbrk_r                                           /usr/lib/gcc/arm-none-eabi/8.2.0/../../../../arm-none-eabi/lib/thumb/v6-m/nofp/libc_nano.a(lib_a-sbrkr.o)
                                                  /usr/lib/gcc/arm-none-eabi/8.2.0/../../../../arm-none-eabi/lib/thumb/v6-m/nofp/libc_nano.a(lib_a-nano-mallocr.o)
_sbss                                             build/obj/./src/startup/startup_stm32f0.os
_sdata                                            build/obj/./src/startup/startup_stm32f0.os
_sidata                                           build/obj/./src/startup/startup_stm32f0.os
_signal_r                                         /usr/lib/gcc/arm-none-eabi/8.2.0/../../../../arm-none-eabi/lib/thumb/v6-m/nofp/libc_nano.a(lib_a-signal.o)
_start                                            /usr/lib/gcc/arm-none-eabi/8.2.0/../../../../arm-none-eabi/lib/thumb/v6-m/nofp/crt0.o
_vfiprintf_r                                      /usr/lib/gcc/arm-none-eabi/8.2.0/../../../../arm-none-eabi/lib/thumb/v6-m/nofp/libc_nano.a(lib_a-nano-vfprintf.o)
_vfprintf_r                                       /usr/lib/gcc/arm-none-eabi/8.2.0/../../../../arm-none-eabi/lib/thumb/v6-m/nofp/libc_nano.a(lib_a-nano-vfprintf.o)
                                                  /usr/lib/gcc/arm-none-eabi/8.2.0/../../../../arm-none-eabi/lib/thumb/v6-m/nofp/libc_nano.a(lib_a-printf.o)
_write                                            /usr/lib/gcc/arm-none-eabi/8.2.0/../../../../arm-none-eabi/lib/thumb/v6-m/nofp/libnosys.a(write.o)
                                                  /usr/lib/gcc/arm-none-eabi/8.2.0/../../../../arm-none-eabi/lib/thumb/v6-m/nofp/libc_nano.a(lib_a-writer.o)
_write_r                                          /usr/lib/gcc/arm-none-eabi/8.2.0/../../../../arm-none-eabi/lib/thumb/v6-m/nofp/libc_nano.a(lib_a-writer.o)
                                                  /usr/lib/gcc/arm-none-eabi/8.2.0/../../../../arm-none-eabi/lib/thumb/v6-m/nofp/libc_nano.a(lib_a-stdio.o)
abort                                             /usr/lib/gcc/arm-none-eabi/8.2.0/../../../../arm-none-eabi/lib/thumb/v6-m/nofp/libc_nano.a(lib_a-abort.o)
                                                  /usr/lib/gcc/arm-none-eabi/8.2.0/../../../../arm-none-eabi/lib/thumb/v6-m/nofp/libstdc++_nano.a(new_op.o)
atexit                                            /usr/lib/gcc/arm-none-eabi/8.2.0/../../../../arm-none-eabi/lib/thumb/v6-m/nofp/libc_nano.a(lib_a-atexit.o)
                                                  /usr/lib/gcc/arm-none-eabi/8.2.0/../../../../arm-none-eabi/lib/thumb/v6-m/nofp/crt0.o
cleanup_glue                                      /usr/lib/gcc/arm-none-eabi/8.2.0/../../../../arm-none-eabi/lib/thumb/v6-m/nofp/libc_nano.a(lib_a-reent.o)
configureClocks(unsigned long)                    build/obj/./src/scheduling.opp
constrain_float(float, float, float)              build/obj/./src/LowPassFilter.opp
crcCalcChecksum(unsigned long*, unsigned char)    build/obj/./src/crc.opp
                                                  build/obj/./src/flash.opp
crcInit()                                         build/obj/./src/crc.opp
crcTest()                                         build/obj/./src/crc.opp
double constrain_value<double>(double, double, double) build/obj/./src/LowPassFilter.opp
end                                               /usr/lib/gcc/arm-none-eabi/8.2.0/../../../../arm-none-eabi/lib/thumb/v6-m/nofp/libnosys.a(sbrk.o)
errno                                             /usr/lib/gcc/arm-none-eabi/8.2.0/../../../../arm-none-eabi/lib/thumb/v6-m/nofp/libc_nano.a(lib_a-reent.o)
                                                  /usr/lib/gcc/arm-none-eabi/8.2.0/../../../../arm-none-eabi/lib/thumb/v6-m/nofp/libnosys.a(write.o)
                                                  /usr/lib/gcc/arm-none-eabi/8.2.0/../../../../arm-none-eabi/lib/thumb/v6-m/nofp/libnosys.a(read.o)
                                                  /usr/lib/gcc/arm-none-eabi/8.2.0/../../../../arm-none-eabi/lib/thumb/v6-m/nofp/libnosys.a(lseek.o)
                                                  /usr/lib/gcc/arm-none-eabi/8.2.0/../../../../arm-none-eabi/lib/thumb/v6-m/nofp/libnosys.a(kill.o)
                                                  /usr/lib/gcc/arm-none-eabi/8.2.0/../../../../arm-none-eabi/lib/thumb/v6-m/nofp/libnosys.a(isatty.o)
                                                  /usr/lib/gcc/arm-none-eabi/8.2.0/../../../../arm-none-eabi/lib/thumb/v6-m/nofp/libnosys.a(getpid.o)
                                                  /usr/lib/gcc/arm-none-eabi/8.2.0/../../../../arm-none-eabi/lib/thumb/v6-m/nofp/libnosys.a(fstat.o)
                                                  /usr/lib/gcc/arm-none-eabi/8.2.0/../../../../arm-none-eabi/lib/thumb/v6-m/nofp/libnosys.a(close.o)
                                                  /usr/lib/gcc/arm-none-eabi/8.2.0/../../../../arm-none-eabi/lib/thumb/v6-m/nofp/libc_nano.a(lib_a-readr.o)
                                                  /usr/lib/gcc/arm-none-eabi/8.2.0/../../../../arm-none-eabi/lib/thumb/v6-m/nofp/libc_nano.a(lib_a-lseekr.o)
                                                  /usr/lib/gcc/arm-none-eabi/8.2.0/../../../../arm-none-eabi/lib/thumb/v6-m/nofp/libc_nano.a(lib_a-isattyr.o)
                                                  /usr/lib/gcc/arm-none-eabi/8.2.0/../../../../arm-none-eabi/lib/thumb/v6-m/nofp/libc_nano.a(lib_a-fstatr.o)
                                                  /usr/lib/gcc/arm-none-eabi/8.2.0/../../../../arm-none-eabi/lib/thumb/v6-m/nofp/libc_nano.a(lib_a-closer.o)
                                                  /usr/lib/gcc/arm-none-eabi/8.2.0/../../../../arm-none-eabi/lib/thumb/v6-m/nofp/libc_nano.a(lib_a-writer.o)
                                                  /usr/lib/gcc/arm-none-eabi/8.2.0/../../../../arm-none-eabi/lib/thumb/v6-m/nofp/libc_nano.a(lib_a-signalr.o)
                                                  /usr/lib/gcc/arm-none-eabi/8.2.0/../../../../arm-none-eabi/lib/thumb/v6-m/nofp/libc_nano.a(lib_a-sbrkr.o)
exit                                              /usr/lib/gcc/arm-none-eabi/8.2.0/../../../../arm-none-eabi/lib/thumb/v6-m/nofp/libc_nano.a(lib_a-exit.o)
                                                  /usr/lib/gcc/arm-none-eabi/8.2.0/../../../../arm-none-eabi/lib/thumb/v6-m/nofp/crt0.o
fflush                                            /usr/lib/gcc/arm-none-eabi/8.2.0/../../../../arm-none-eabi/lib/thumb/v6-m/nofp/libc_nano.a(lib_a-fflush.o)
float constrain_value<float>(float, float, float) build/obj/./src/LowPassFilter.opp
fputc                                             build/obj/./src/printing.opp
free                                              /usr/lib/gcc/arm-none-eabi/8.2.0/../../../../arm-none-eabi/lib/thumb/v6-m/nofp/libc_nano.a(lib_a-malloc.o)
                                                  /usr/lib/gcc/arm-none-eabi/8.2.0/../../../../arm-none-eabi/lib/thumb/v6-m/nofp/libstdc++_nano.a(del_op.o)
g_pfnVectors                                      build/obj/./src/startup/startup_stm32f0.os
gpio_Led                                          build/obj/src/example/example-gpio.opp
hardware_init_hook                                /usr/lib/gcc/arm-none-eabi/8.2.0/../../../../arm-none-eabi/lib/thumb/v6-m/nofp/crt0.o
int constrain_value<int>(int, int, int)           build/obj/./src/LowPassFilter.opp
iprintf                                           /usr/lib/gcc/arm-none-eabi/8.2.0/../../../../arm-none-eabi/lib/thumb/v6-m/nofp/libc_nano.a(lib_a-printf.o)
it_callback::it_callback()                        build/obj/./src/timer.opp
it_callback::it_callback()                        build/obj/./src/timer.opp
key                                               build/obj/./src/json.opp
long constrain_value<long>(long, long, long)      build/obj/./src/LowPassFilter.opp
mDelay(unsigned long)                             build/obj/./src/scheduling.opp
                                                  build/obj/src/example/example-gpio.opp
main                                              build/obj/src/example/example-gpio.opp
                                                  build/obj/./src/startup/startup_stm32f0.os
                                                  /usr/lib/gcc/arm-none-eabi/8.2.0/../../../../arm-none-eabi/lib/thumb/v6-m/nofp/crt0.o
malloc                                            /usr/lib/gcc/arm-none-eabi/8.2.0/../../../../arm-none-eabi/lib/thumb/v6-m/nofp/libc_nano.a(lib_a-malloc.o)
                                                  /usr/lib/gcc/arm-none-eabi/8.2.0/../../../../arm-none-eabi/lib/thumb/v6-m/nofp/libc_nano.a(lib_a-__atexit.o)
                                                  /usr/lib/gcc/arm-none-eabi/8.2.0/../../../../arm-none-eabi/lib/thumb/v6-m/nofp/libstdc++_nano.a(new_op.o)
map(float, float, float, float, float)            build/obj/./src/helpers.opp
                                                  build/obj/./src/timer.opp
memchr                                            /usr/lib/gcc/arm-none-eabi/8.2.0/../../../../arm-none-eabi/lib/thumb/v6-m/nofp/libc_nano.a(lib_a-memchr-stub.o)
                                                  /usr/lib/gcc/arm-none-eabi/8.2.0/../../../../arm-none-eabi/lib/thumb/v6-m/nofp/libc_nano.a(lib_a-nano-vfprintf_i.o)
                                                  /usr/lib/gcc/arm-none-eabi/8.2.0/../../../../arm-none-eabi/lib/thumb/v6-m/nofp/libc_nano.a(lib_a-fvwrite.o)
                                                  /usr/lib/gcc/arm-none-eabi/8.2.0/../../../../arm-none-eabi/lib/thumb/v6-m/nofp/libc_nano.a(lib_a-nano-vfprintf.o)
memcpy                                            /usr/lib/gcc/arm-none-eabi/8.2.0/../../../../arm-none-eabi/lib/thumb/v6-m/nofp/libc_nano.a(lib_a-memcpy-stub.o)
                                                  /usr/lib/gcc/arm-none-eabi/8.2.0/../../../../arm-none-eabi/lib/thumb/v6-m/nofp/libc_nano.a(lib_a-nano-reallocr.o)
                                                  /usr/lib/gcc/arm-none-eabi/8.2.0/../../../../arm-none-eabi/lib/thumb/v6-m/nofp/libc_nano.a(lib_a-fvwrite.o)
memmove                                           /usr/lib/gcc/arm-none-eabi/8.2.0/../../../../arm-none-eabi/lib/thumb/v6-m/nofp/libc_nano.a(lib_a-memmove.o)
                                                  /usr/lib/gcc/arm-none-eabi/8.2.0/../../../../arm-none-eabi/lib/thumb/v6-m/nofp/libc_nano.a(lib_a-fvwrite.o)
memset                                            /usr/lib/gcc/arm-none-eabi/8.2.0/../../../../arm-none-eabi/lib/thumb/v6-m/nofp/libc_nano.a(lib_a-memset.o)
                                                  /usr/lib/gcc/arm-none-eabi/8.2.0/../../../../arm-none-eabi/lib/thumb/v6-m/nofp/libc_nano.a(lib_a-findfp.o)
                                                  /usr/lib/gcc/arm-none-eabi/8.2.0/../../../../arm-none-eabi/lib/thumb/v6-m/nofp/crt0.o
my_atoi(char*)                                    build/obj/./src/printing.opp
my_printInt(unsigned long)                        build/obj/./src/printing.opp
                                                  build/obj/./src/flash.opp
nvic_config(unsigned char, unsigned char, FunctionalState) build/obj/./src/helpers.opp
operator delete(void*)                            /usr/lib/gcc/arm-none-eabi/8.2.0/../../../../arm-none-eabi/lib/thumb/v6-m/nofp/libstdc++_nano.a(del_op.o)
                                                  /usr/lib/gcc/arm-none-eabi/8.2.0/../../../../arm-none-eabi/lib/thumb/v6-m/nofp/libstdc++_nano.a(del_opv.o)
operator delete[](void*)                          /usr/lib/gcc/arm-none-eabi/8.2.0/../../../../arm-none-eabi/lib/thumb/v6-m/nofp/libstdc++_nano.a(del_opv.o)
                                                  build/obj/./src/adc.opp
operator new(unsigned int)                        /usr/lib/gcc/arm-none-eabi/8.2.0/../../../../arm-none-eabi/lib/thumb/v6-m/nofp/libstdc++_nano.a(new_op.o)
                                                  /usr/lib/gcc/arm-none-eabi/8.2.0/../../../../arm-none-eabi/lib/thumb/v6-m/nofp/libstdc++_nano.a(new_opv.o)
                                                  build/obj/./src/adc.opp
                                                  build/obj/./src/timer.opp
operator new[](unsigned int)                      /usr/lib/gcc/arm-none-eabi/8.2.0/../../../../arm-none-eabi/lib/thumb/v6-m/nofp/libstdc++_nano.a(new_opv.o)
                                                  build/obj/./src/adc.opp
parseByte(char const&)                            build/obj/./src/json.opp
parse_errors                                      build/obj/./src/json.opp
print(char const*)                                build/obj/./src/printing.opp
                                                  build/obj/./src/flash.opp
print(unsigned short)                             build/obj/./src/printing.opp
printBits(unsigned int, void volatile*)           build/obj/./src/printing.opp
printHex(unsigned long)                           build/obj/./src/printing.opp
                                                  build/obj/./src/flash.opp
                                                  build/obj/./src/crc.opp
print_clocks()                                    build/obj/./src/printing.opp
printf                                            /usr/lib/gcc/arm-none-eabi/8.2.0/../../../../arm-none-eabi/lib/thumb/v6-m/nofp/libc_nano.a(lib_a-printf.o)
                                                  build/obj/./src/uart.opp
                                                  build/obj/./src/printing.opp
println()                                         build/obj/./src/printing.opp
                                                  build/obj/./src/flash.opp
                                                  build/obj/./src/crc.opp
puts                                              /usr/lib/gcc/arm-none-eabi/8.2.0/../../../../arm-none-eabi/lib/thumb/v6-m/nofp/libc_nano.a(lib_a-puts.o)
                                                  build/obj/./src/printing.opp
raise                                             /usr/lib/gcc/arm-none-eabi/8.2.0/../../../../arm-none-eabi/lib/thumb/v6-m/nofp/libc_nano.a(lib_a-signal.o)
                                                  /usr/lib/gcc/arm-none-eabi/8.2.0/../../../../arm-none-eabi/lib/thumb/v6-m/nofp/libc_nano.a(lib_a-abort.o)
short constrain_value<short>(short, short, short) build/obj/./src/LowPassFilter.opp
signal                                            /usr/lib/gcc/arm-none-eabi/8.2.0/../../../../arm-none-eabi/lib/thumb/v6-m/nofp/libc_nano.a(lib_a-signal.o)
software_init_hook                                /usr/lib/gcc/arm-none-eabi/8.2.0/../../../../arm-none-eabi/lib/thumb/v6-m/nofp/crt0.o
std::get_new_handler()                            /usr/lib/gcc/arm-none-eabi/8.2.0/../../../../arm-none-eabi/lib/thumb/v6-m/nofp/libstdc++_nano.a(new_handler.o)
                                                  /usr/lib/gcc/arm-none-eabi/8.2.0/../../../../arm-none-eabi/lib/thumb/v6-m/nofp/libstdc++_nano.a(new_op.o)
std::isnan(double)                                build/obj/./src/LowPassFilter.opp
std::isnan(float)                                 build/obj/./src/LowPassFilter.opp
std::nothrow                                      /usr/lib/gcc/arm-none-eabi/8.2.0/../../../../arm-none-eabi/lib/thumb/v6-m/nofp/libstdc++_nano.a(new_handler.o)
std::set_new_handler(void (*)())                  /usr/lib/gcc/arm-none-eabi/8.2.0/../../../../arm-none-eabi/lib/thumb/v6-m/nofp/libstdc++_nano.a(new_handler.o)
systick_frequency                                 build/obj/./src/scheduling.opp
                                                  build/obj/src/example/example-gpio.opp
timer3                                            build/obj/./src/timer.opp
uDelay(unsigned long)                             build/obj/./src/scheduling.opp
uart1                                             build/obj/./src/uart.opp
                                                  build/obj/./src/printing.opp
value                                             build/obj/./src/json.opp
vfiprintf                                         /usr/lib/gcc/arm-none-eabi/8.2.0/../../../../arm-none-eabi/lib/thumb/v6-m/nofp/libc_nano.a(lib_a-nano-vfprintf.o)
vfprintf                                          /usr/lib/gcc/arm-none-eabi/8.2.0/../../../../arm-none-eabi/lib/thumb/v6-m/nofp/libc_nano.a(lib_a-nano-vfprintf.o)
